Certificate:
    Data:
        Version: 3 (0x2)
        Serial Number: 1 (0x1)
        Signature Algorithm: sha1WithRSAEncryption
        Issuer: C=CZ, ST=Jihomoravsky kraj, L=Brno, O=Red Hat Czech, OU=DesktopQE, CN=Red Hat CA
        Validity
            Not Before: Jun  2 19:18:44 2020 GMT
            Not After : May 31 19:18:44 2030 GMT
        Subject: C=CZ, ST=Jihomoravsky kraj, O=Red Hat Czech, OU=Desktop QE, CN=libreswan_server
        Subject Public Key Info:
            Public Key Algorithm: rsaEncryption
                RSA Public-Key: (4096 bit)
                Modulus:
                    00:d6:a8:f4:5d:17:ab:1d:ba:44:67:3a:cf:f6:e4:
                    ee:d2:ec:69:5b:12:27:eb:48:3e:09:7c:68:ca:3f:
                    20:3b:ec:75:1c:2c:ef:c1:f6:f1:46:3d:2e:eb:cf:
                    60:b3:6a:b5:65:97:13:c1:02:6a:62:61:2d:10:89:
                    dc:b0:c6:d1:7e:0d:b5:0a:ec:7e:df:7b:20:ca:86:
                    01:7f:f2:b0:c7:36:f9:1a:97:a5:d4:a3:d2:d3:03:
                    54:99:dd:75:9a:59:30:82:67:32:55:1d:5c:ad:dd:
                    cf:e3:3f:24:fb:a9:5a:db:15:46:43:6e:30:31:5c:
                    46:21:e8:40:c5:eb:5c:34:95:bb:6b:52:cb:30:1f:
                    91:d6:91:ed:fb:d1:80:7b:04:ec:39:15:15:3a:5b:
                    13:4e:8f:65:39:14:7e:fe:94:36:8f:f3:be:2a:f0:
                    e7:44:25:1b:25:18:f3:4f:f2:cc:b8:8d:44:2a:57:
                    26:ca:38:8b:61:fe:bd:54:31:44:28:3d:64:b4:5f:
                    bc:55:3c:f7:66:c9:30:a2:75:2e:87:b1:6c:fc:1f:
                    24:be:94:42:86:0c:c8:97:0f:ee:80:f9:fb:cf:f5:
                    c5:bc:cc:2c:b7:7e:07:45:98:c9:3b:4c:4e:dd:90:
                    0a:63:d2:0c:4b:47:21:0c:71:34:cc:95:24:47:16:
                    30:2e:d1:1d:bb:7b:6d:91:1f:ea:e8:28:f8:80:77:
                    85:93:28:0d:b6:1e:c0:6d:df:41:ed:72:53:f7:6d:
                    83:84:9e:d7:2c:00:95:7e:5d:41:62:69:56:9f:14:
                    41:6a:9b:cd:c4:b0:c3:6c:13:72:ef:d5:89:c1:1b:
                    28:f1:66:c5:25:65:01:fc:59:32:67:bc:65:c2:3d:
                    73:62:91:95:ce:96:8a:50:5f:85:12:ac:c5:e2:d1:
                    4f:19:9a:aa:a4:f8:6c:64:be:a3:34:f1:61:79:b1:
                    44:04:fd:4a:d8:f7:86:cd:7c:2d:58:e9:fa:83:6c:
                    4a:74:99:78:c5:23:0b:07:ff:2b:84:31:53:fb:25:
                    53:40:34:9e:56:57:e2:2f:bb:64:5b:ea:6d:9d:40:
                    b6:19:29:28:e9:62:99:84:f3:84:b0:5b:17:66:a4:
                    42:44:c8:c6:6f:b7:b7:70:95:5c:25:1d:06:b5:9e:
                    00:62:31:b8:49:55:81:c3:18:12:9d:b7:05:92:79:
                    36:b8:6e:ca:f9:1e:ec:15:28:5b:be:db:b7:e1:9d:
                    70:65:a3:c8:36:1a:40:a8:f9:46:d0:87:06:02:ef:
                    71:60:2e:a7:a9:c8:da:94:9e:cd:29:6c:77:8f:c5:
                    ab:93:9d:1f:c8:a4:29:23:51:0e:bb:5e:e6:57:ac:
                    2b:f9:c5
                Exponent: 65537 (0x10001)
        X509v3 extensions:
            X509v3 Basic Constraints: 
                CA:FALSE
            X509v3 Subject Alternative Name: 
                IP Address:11.12.13.14
            X509v3 Subject Key Identifier: 
                B5:46:94:F3:78:D1:5D:3F:5D:F5:98:EA:EE:BA:2C:4A:A4:1C:C6:07
    Signature Algorithm: sha1WithRSAEncryption
         42:81:d6:1e:fc:5c:46:e6:15:58:aa:79:cf:67:c6:8d:c3:6a:
         f0:c8:ae:d8:a6:11:e6:34:b2:58:65:8d:fc:a8:3f:40:43:80:
         f8:0c:c3:0c:c1:71:30:c4:5d:eb:bf:0a:d7:b2:ac:49:e5:08:
         bc:48:fd:69:ec:ab:2c:f7:76:42:b8:a1:b8:67:78:55:7f:fe:
         4e:c4:64:cf:7a:40:dc:84:0b:65:e4:eb:61:fb:5e:b0:59:0c:
         9e:73:d6:19:32:6a:15:d8:ff:2f:75:e3:71:e9:12:d2:22:dc:
         83:5a:b7:db:8e:99:57:d7:f6:49:ef:4d:d3:d5:f0:68:d4:26:
         a1:34:a2:5f:0a:74:75:cc:b2:25:9c:ac:c0:6b:04:e1:9e:c6:
         29:b2:17:e8:26:31:1f:ee:76:7d:42:ce:af:08:c9:b1:8b:9b:
         5d:ee:90:01:67:df:8b:8b:ef:51:89:f5:61:3c:5d:45:43:ca:
         b8:ce:13:c2:7f:04:e1:60:c1:98:5b:db:5a:dc:6a:cd:a1:90:
         e9:06:5f:de:81:0d:31:9d:7f:32:fc:5f:29:9b:41:d6:01:82:
         88:f3:c9:e7:8a:02:c0:47:ac:8b:12:ae:62:4e:d2:7f:87:80:
         86:6f:b6:71:c0:f6:85:57:60:7a:6e:fb:16:2f:3e:fe:86:cb:
         8b:eb:ea:be:74:4f:aa:b8:2a:16:a6:c8:93:b9:b0:9d:5a:53:
         96:81:ee:87:8f:81:87:27:7e:78:f1:e1:39:83:3e:35:a7:4d:
         54:7b:48:ff:ce:d8:35:96:53:95:6a:32:35:ef:64:f6:50:4a:
         03:3d:2f:ba:96:b1:57:29:35:73:f7:63:4e:82:29:52:c8:77:
         8f:61:21:40:f9:a8:f5:a3:4f:da:4e:69:b4:b0:37:f5:89:9a:
         cb:66:1f:19:97:9d:40:a5:db:12:e4:5c:22:07:ea:92:4f:66:
         c3:89:01:a2:c3:45:c8:c2:ac:b9:6a:85:55:f3:09:b3:5b:97:
         b9:90:96:df:98:24:0c:a0:b2:69:1b:93:3d:3f:6f:77:10:f6:
         88:ec:5e:45:5a:df:e2:70:d7:f8:20:1e:ac:93:c5:61:34:d5:
         aa:91:c7:3c:5d:bd:b8:70:01:5b:e8:1e:c4:83:94:be:a9:ff:
         f6:39:b7:b8:a0:d4:39:67:6b:da:d4:39:5f:54:ed:cf:f2:55:
         68:56:af:5d:84:1e:c2:73:40:b4:bc:4d:bd:27:db:5e:49:80:
         df:cd:82:17:29:35:33:c1:f9:6c:fd:ec:cf:8a:b9:f4:b0:d2:
         4f:a7:92:21:84:52:5c:d8:41:68:78:d0:69:d0:06:e7:16:63:
         90:7c:34:a4:a3:09:14:f7
-----BEGIN CERTIFICATE-----
MIIFojCCA4qgAwIBAgIBATANBgkqhkiG9w0BAQUFADB5MQswCQYDVQQGEwJDWjEa
MBgGA1UECAwRSmlob21vcmF2c2t5IGtyYWoxDTALBgNVBAcMBEJybm8xFjAUBgNV
BAoMDVJlZCBIYXQgQ3plY2gxEjAQBgNVBAsMCURlc2t0b3BRRTETMBEGA1UEAwwK
UmVkIEhhdCBDQTAeFw0yMDA2MDIxOTE4NDRaFw0zMDA1MzExOTE4NDRaMHExCzAJ
BgNVBAYTAkNaMRowGAYDVQQIDBFKaWhvbW9yYXZza3kga3JhajEWMBQGA1UECgwN
UmVkIEhhdCBDemVjaDETMBEGA1UECwwKRGVza3RvcCBRRTEZMBcGA1UEAwwQbGli
cmVzd2FuX3NlcnZlcjCCAiIwDQYJKoZIhvcNAQEBBQADggIPADCCAgoCggIBANao
9F0Xqx26RGc6z/bk7tLsaVsSJ+tIPgl8aMo/IDvsdRws78H28UY9LuvPYLNqtWWX
E8ECamJhLRCJ3LDG0X4NtQrsft97IMqGAX/ysMc2+RqXpdSj0tMDVJnddZpZMIJn
MlUdXK3dz+M/JPupWtsVRkNuMDFcRiHoQMXrXDSVu2tSyzAfkdaR7fvRgHsE7DkV
FTpbE06PZTkUfv6UNo/zvirw50QlGyUY80/yzLiNRCpXJso4i2H+vVQxRCg9ZLRf
vFU892bJMKJ1LoexbPwfJL6UQoYMyJcP7oD5+8/1xbzMLLd+B0WYyTtMTt2QCmPS
DEtHIQxxNMyVJEcWMC7RHbt7bZEf6ugo+IB3hZMoDbYewG3fQe1yU/dtg4Se1ywA
lX5dQWJpVp8UQWqbzcSww2wTcu/VicEbKPFmxSVlAfxZMme8ZcI9c2KRlc6WilBf
hRKsxeLRTxmaqqT4bGS+ozTxYXmxRAT9Stj3hs18LVjp+oNsSnSZeMUjCwf/K4Qx
U/slU0A0nlZX4i+7ZFvqbZ1AthkpKOlimYTzhLBbF2akQkTIxm+3t3CVXCUdBrWe
AGIxuElVgcMYEp23BZJ5Nrhuyvke7BUoW77bt+GdcGWjyDYaQKj5RtCHBgLvcWAu
p6nI2pSezSlsd4/Fq5OdH8ikKSNRDrte5lesK/nFAgMBAAGjPTA7MAkGA1UdEwQC
MAAwDwYDVR0RBAgwBocECwwNDjAdBgNVHQ4EFgQUtUaU83jRXT9d9Zjq7rosSqQc
xgcwDQYJKoZIhvcNAQEFBQADggIBAEKB1h78XEbmFViqec9nxo3DavDIrtimEeY0
slhljfyoP0BDgPgMwwzBcTDEXeu/CteyrEnlCLxI/Wnsqyz3dkK4obhneFV//k7E
ZM96QNyEC2Xk62H7XrBZDJ5z1hkyahXY/y9143HpEtIi3INat9uOmVfX9knvTdPV
8GjUJqE0ol8KdHXMsiWcrMBrBOGeximyF+gmMR/udn1Czq8IybGLm13ukAFn34uL
71GJ9WE8XUVDyrjOE8J/BOFgwZhb21rcas2hkOkGX96BDTGdfzL8XymbQdYBgojz
yeeKAsBHrIsSrmJO0n+HgIZvtnHA9oVXYHpu+xYvPv6Gy4vr6r50T6q4KhamyJO5
sJ1aU5aB7oePgYcnfnjx4TmDPjWnTVR7SP/O2DWWU5VqMjXvZPZQSgM9L7qWsVcp
NXP3Y06CKVLId49hIUD5qPWjT9pOabSwN/WJmstmHxmXnUCl2xLkXCIH6pJPZsOJ
AaLDRcjCrLlqhVXzCbNbl7mQlt+YJAygsmkbkz0/b3cQ9ojsXkVa3+Jw1/ggHqyT
xWE01aqRxzxdvbhwAVvoHsSDlL6p//Y5t7ig1Dlna9rUOV9U7c/yVWhWr12EHsJz
QLS8Tb0n215JgN/NghcpNTPB+Wz97M+KufSw0k+nkiGEUlzYQWh40GnQBucWY5B8
NKSjCRT3
-----END CERTIFICATE-----
