Certificate:
    Data:
        Version: 3 (0x2)
        Serial Number:
            8b:12:1d:3e:ff:12:94:a5
    Signature Algorithm: sha256WithRSAEncryption
        Issuer: C=CZ, ST=Jihomoravsky kraj, L=Brno, O=Red Hat Czech, OU=DesktopQE, CN=Red Hat CA
        Validity
            Not Before: Aug 30 14:36:08 2017 GMT
            Not After : Aug 30 14:36:08 2027 GMT
        Subject: C=CZ, ST=Jihomoravsky kraj, O=Red Hat Czech, OU=DesktopQE, CN=test
        Subject Public Key Info:
            Public Key Algorithm: rsaEncryption
                Public-Key: (4096 bit)
                Modulus:
                    00:d5:7b:c6:9c:a2:7b:f2:06:3a:bc:bb:4b:1a:21:
                    f5:26:5b:84:24:1f:51:ab:16:50:a5:49:1a:4d:f0:
                    32:a8:bf:15:c6:1b:24:70:90:82:92:d5:0f:4f:c6:
                    c6:a1:e2:87:61:96:ca:59:f4:23:3a:f8:f6:c2:f5:
                    52:a5:31:67:14:2d:ed:f3:58:7e:19:52:2c:2b:2e:
                    c5:25:ff:70:fd:b5:a0:e0:f1:34:77:25:63:ab:43:
                    82:0d:75:d1:cb:0b:36:a9:03:04:a8:60:28:21:67:
                    c1:17:45:1c:6a:f3:ef:cf:be:f7:82:56:c7:4a:80:
                    5d:a7:7d:6e:af:fe:2a:8b:ca:e7:7a:1d:3d:fb:40:
                    64:3e:da:c5:37:82:9c:35:b9:0e:38:76:e6:df:ac:
                    e8:9a:f0:53:ef:b0:2b:d3:4c:bc:fa:25:8c:84:5f:
                    f0:e2:0b:2f:1c:68:94:4c:cd:16:d5:1f:45:5c:60:
                    d3:45:f2:62:be:b3:43:87:18:5a:f4:10:eb:25:ad:
                    2e:9c:08:0e:e6:8f:fa:62:fe:89:36:5f:6e:08:2c:
                    51:a4:c8:7b:82:6d:67:50:bb:2a:fd:ab:49:41:83:
                    f7:b4:22:5d:5e:57:a2:fd:a8:61:0d:f3:8e:91:fa:
                    d0:54:21:cd:bb:2a:46:3f:94:1f:fd:b2:1e:dc:5c:
                    e4:2a:2d:e3:db:e2:83:c2:f9:13:8b:03:42:e1:46:
                    82:0e:6a:91:a1:b9:14:44:f0:13:55:bc:57:9a:1f:
                    19:5a:ab:72:fe:a4:50:36:e5:2a:89:dc:88:65:15:
                    fe:c0:84:e7:d0:f2:80:4c:8f:f9:75:06:0b:a6:90:
                    f1:f4:4d:48:d2:13:f1:f1:49:7f:b2:d0:8d:fd:ed:
                    38:43:29:10:35:8c:4d:48:88:21:97:76:b4:ef:9d:
                    17:71:c0:ad:75:7e:c9:0a:3f:24:8c:e4:f1:be:20:
                    22:27:b4:3d:6e:67:e1:59:d1:fe:8c:48:b6:c4:c2:
                    21:fb:21:7d:47:2d:b2:09:e6:3c:03:a1:8c:27:12:
                    05:a7:06:0b:e2:fd:af:1f:ec:90:9c:15:5a:6e:5d:
                    37:4f:90:a2:82:b7:47:a9:a1:3d:d6:89:6f:47:0b:
                    75:b1:a8:f0:39:54:9b:14:3a:b4:77:1c:01:28:c1:
                    16:8f:d0:4d:53:72:1b:e3:7d:76:05:4c:54:52:52:
                    5d:6b:35:e1:01:bc:a4:6d:b9:81:f3:4d:49:c3:53:
                    7c:25:48:e3:fa:ca:fd:05:41:96:28:c0:7e:68:8e:
                    41:21:df:62:ae:7b:d9:ae:d3:e3:66:0c:40:18:fa:
                    d0:bf:d7:c8:d1:b2:6e:c9:3e:cb:d3:7f:a3:4b:81:
                    49:0d:df
                Exponent: 65537 (0x10001)
        X509v3 extensions:
            X509v3 Basic Constraints: 
                CA:FALSE
            Netscape Comment: 
                OpenSSL Generated Certificate
            X509v3 Subject Key Identifier: 
                D1:B4:60:50:CA:62:D9:57:D3:90:B4:44:E7:97:79:33:F1:29:AD:A5
            X509v3 Authority Key Identifier: 
                keyid:8E:EA:91:13:D8:3C:4B:29:AC:A1:EB:D6:3E:C2:6A:B9:1A:5D:66:C3

    Signature Algorithm: sha256WithRSAEncryption
         94:1d:c9:f0:1a:76:34:0d:22:a4:b5:33:b7:d1:78:99:06:f2:
         09:51:48:65:a0:a9:19:99:c0:72:df:e3:70:fb:1f:4c:d0:62:
         41:55:18:ad:cf:e9:df:5c:18:e8:55:a6:d3:c5:c7:1d:a3:5d:
         e2:2e:d7:8f:8b:80:5d:ae:52:13:32:7e:a5:d1:a1:6a:04:2b:
         ac:46:f1:ae:89:ab:00:4e:c6:85:f9:79:2c:a4:c6:a6:00:53:
         ce:97:50:40:f5:80:68:19:d9:92:5a:a9:98:14:8f:aa:80:12:
         7d:97:c1:b5:ed:ab:14:41:50:45:40:6e:d5:c3:02:51:c9:b2:
         49:36:95:62:fd:99:e5:24:01:e5:46:98:21:0d:ed:eb:36:38:
         7f:d6:e4:12:3b:da:c0:8b:00:a5:eb:4b:43:c2:c8:9f:3b:3c:
         79:30:1d:79:db:e3:34:31:53:b7:5d:02:68:8c:8d:a3:af:9d:
         c4:a8:45:d0:39:92:49:ba:4a:d1:0f:1d:6a:d3:2b:b1:56:ed:
         54:26:ae:f5:1d:4b:24:46:49:3f:98:53:d5:db:89:d1:aa:13:
         73:3e:80:4d:0b:81:86:3c:37:19:90:f6:98:b6:ef:3f:62:49:
         f2:cd:4e:51:48:4a:97:75:4f:33:94:31:b1:76:5a:a7:1f:4d:
         9d:0c:56:f2:5a:14:5e:e9:58:c1:c5:f4:3c:c8:d1:e6:68:00:
         58:23:14:ab:0b:9b:c3:c4:61:b1:ff:73:ab:63:21:9f:59:a5:
         ad:7e:e5:82:02:d9:ad:1e:cc:8f:46:5e:0f:10:ca:c5:0f:c7:
         b3:5e:15:3d:8b:91:35:d8:7f:a9:8c:b3:c2:fb:14:44:cf:35:
         fb:60:9f:65:52:4b:02:88:b7:07:54:42:b3:8d:77:40:48:be:
         83:75:68:dc:44:ec:c4:07:35:f5:27:bf:37:fb:0b:a0:ce:28:
         ff:de:87:52:fb:d8:22:c6:cd:4b:8d:0c:cb:e3:60:79:0b:61:
         34:96:95:b3:d4:d4:d1:66:e9:f8:34:19:49:ed:ae:70:8c:d6:
         4b:d1:62:53:70:df:6f:4e:03:13:22:a2:f0:c9:05:07:79:60:
         b4:bf:bc:b4:78:37:2a:ca:f5:d9:9e:fe:ae:99:00:de:75:eb:
         25:4c:eb:9d:d0:5c:38:2e:3c:f9:f1:46:68:bd:52:73:f6:1c:
         d5:fd:78:b6:d1:ec:35:ce:63:47:d6:92:1c:3f:69:c0:63:5a:
         2a:e1:c3:73:21:6d:4b:45:f6:4c:c5:c6:70:b7:82:a7:54:7a:
         92:78:5a:30:c8:07:6b:5c:1c:cb:34:a2:c8:6c:f8:94:8d:43:
         c4:4d:56:80:30:08:22:05
-----BEGIN CERTIFICATE-----
MIIF2zCCA8OgAwIBAgIJAIsSHT7/EpSlMA0GCSqGSIb3DQEBCwUAMHkxCzAJBgNV
BAYTAkNaMRowGAYDVQQIDBFKaWhvbW9yYXZza3kga3JhajENMAsGA1UEBwwEQnJu
bzEWMBQGA1UECgwNUmVkIEhhdCBDemVjaDESMBAGA1UECwwJRGVza3RvcFFFMRMw
EQYDVQQDDApSZWQgSGF0IENBMB4XDTE3MDgzMDE0MzYwOFoXDTI3MDgzMDE0MzYw
OFowZDELMAkGA1UEBhMCQ1oxGjAYBgNVBAgMEUppaG9tb3JhdnNreSBrcmFqMRYw
FAYDVQQKDA1SZWQgSGF0IEN6ZWNoMRIwEAYDVQQLDAlEZXNrdG9wUUUxDTALBgNV
BAMMBHRlc3QwggIiMA0GCSqGSIb3DQEBAQUAA4ICDwAwggIKAoICAQDVe8aconvy
Bjq8u0saIfUmW4QkH1GrFlClSRpN8DKovxXGGyRwkIKS1Q9Pxsah4odhlspZ9CM6
+PbC9VKlMWcULe3zWH4ZUiwrLsUl/3D9taDg8TR3JWOrQ4INddHLCzapAwSoYCgh
Z8EXRRxq8+/PvveCVsdKgF2nfW6v/iqLyud6HT37QGQ+2sU3gpw1uQ44dubfrOia
8FPvsCvTTLz6JYyEX/DiCy8caJRMzRbVH0VcYNNF8mK+s0OHGFr0EOslrS6cCA7m
j/pi/ok2X24ILFGkyHuCbWdQuyr9q0lBg/e0Il1eV6L9qGEN846R+tBUIc27KkY/
lB/9sh7cXOQqLePb4oPC+ROLA0LhRoIOapGhuRRE8BNVvFeaHxlaq3L+pFA25SqJ
3IhlFf7AhOfQ8oBMj/l1BgumkPH0TUjSE/HxSX+y0I397ThDKRA1jE1IiCGXdrTv
nRdxwK11fskKPySM5PG+ICIntD1uZ+FZ0f6MSLbEwiH7IX1HLbIJ5jwDoYwnEgWn
Bgvi/a8f7JCcFVpuXTdPkKKCt0epoT3WiW9HC3WxqPA5VJsUOrR3HAEowRaP0E1T
chvjfXYFTFRSUl1rNeEBvKRtuYHzTUnDU3wlSOP6yv0FQZYowH5ojkEh32Kue9mu
0+NmDEAY+tC/18jRsm7JPsvTf6NLgUkN3wIDAQABo3sweTAJBgNVHRMEAjAAMCwG
CWCGSAGG+EIBDQQfFh1PcGVuU1NMIEdlbmVyYXRlZCBDZXJ0aWZpY2F0ZTAdBgNV
HQ4EFgQU0bRgUMpi2VfTkLRE55d5M/EpraUwHwYDVR0jBBgwFoAUjuqRE9g8Syms
oevWPsJquRpdZsMwDQYJKoZIhvcNAQELBQADggIBAJQdyfAadjQNIqS1M7fReJkG
8glRSGWgqRmZwHLf43D7H0zQYkFVGK3P6d9cGOhVptPFxx2jXeIu14+LgF2uUhMy
fqXRoWoEK6xG8a6JqwBOxoX5eSykxqYAU86XUED1gGgZ2ZJaqZgUj6qAEn2XwbXt
qxRBUEVAbtXDAlHJskk2lWL9meUkAeVGmCEN7es2OH/W5BI72sCLAKXrS0PCyJ87
PHkwHXnb4zQxU7ddAmiMjaOvncSoRdA5kkm6StEPHWrTK7FW7VQmrvUdSyRGST+Y
U9XbidGqE3M+gE0LgYY8NxmQ9pi27z9iSfLNTlFISpd1TzOUMbF2WqcfTZ0MVvJa
FF7pWMHF9DzI0eZoAFgjFKsLm8PEYbH/c6tjIZ9Zpa1+5YIC2a0ezI9GXg8QysUP
x7NeFT2LkTXYf6mMs8L7FETPNftgn2VSSwKItwdUQrONd0BIvoN1aNxE7MQHNfUn
vzf7C6DOKP/eh1L72CLGzUuNDMvjYHkLYTSWlbPU1NFm6fg0GUntrnCM1kvRYlNw
329OAxMiovDJBQd5YLS/vLR4NyrK9dme/q6ZAN516yVM653QXDguPPnxRmi9UnP2
HNX9eLbR7DXOY0fWkhw/acBjWirhw3MhbUtF9kzFxnC3gqdUepJ4WjDIB2tcHMs0
oshs+JSNQ8RNVoAwCCIF
-----END CERTIFICATE-----
