Certificate:
    Data:
        Version: 3 (0x2)
        Serial Number: 2 (0x2)
        Signature Algorithm: sha1WithRSAEncryption
        Issuer: C=CZ, ST=Jihomoravsky kraj, L=Brno, O=Red Hat Czech, OU=DesktopQE, CN=Red Hat CA
        Validity
            Not Before: Jun  2 19:18:59 2020 GMT
            Not After : May 31 19:18:59 2030 GMT
        Subject: C=CZ, ST=Jihomoravsky kraj, O=Red Hat Czech, OU=Desktop QE, CN=libreswan_client
        Subject Public Key Info:
            Public Key Algorithm: rsaEncryption
                RSA Public-Key: (4096 bit)
                Modulus:
                    00:9b:b0:58:31:5f:c6:17:2b:30:91:77:27:7a:94:
                    92:59:d9:ab:3d:4e:ef:14:13:17:69:32:3c:11:86:
                    34:d8:e6:0d:3d:5c:95:41:05:66:aa:20:1a:84:9c:
                    95:0b:38:a9:83:0a:35:e0:33:14:ea:39:18:b6:03:
                    41:63:41:a8:1a:c1:b0:29:e5:fe:b3:2e:16:2e:a9:
                    ff:8b:93:ea:00:2a:24:bd:69:e5:bb:6c:99:fe:20:
                    7c:8d:4c:d2:24:83:98:f6:2d:1d:27:14:7c:68:cf:
                    8c:e8:bd:05:3c:4c:ab:e5:04:ed:c4:d4:5d:ff:8d:
                    1f:62:e0:c1:bc:2d:5e:e2:4d:8f:5e:ac:8f:42:e6:
                    9b:72:53:b4:31:04:d0:28:d9:39:e4:c8:18:5d:b4:
                    79:eb:51:9e:f3:5b:48:f7:eb:7f:85:7a:67:24:4e:
                    b4:23:8d:f5:50:24:3f:2c:af:ce:cf:b0:61:b0:bd:
                    52:fc:5e:d0:04:9f:e8:58:4d:a9:cb:db:11:5d:55:
                    02:5d:76:cb:12:96:e6:c0:8d:d4:4b:8c:df:a5:82:
                    25:85:51:3d:dc:5d:84:2d:be:16:fc:b4:fc:e0:6a:
                    cd:dc:b6:43:99:f0:44:33:b9:56:73:ca:63:f4:b8:
                    4c:24:c9:ef:47:81:34:1e:c5:4c:99:38:c3:d3:c5:
                    02:8b:12:38:55:4d:42:d3:e8:00:7f:22:41:3b:4f:
                    64:93:77:c0:9c:bb:10:eb:cc:51:8f:16:21:de:e7:
                    2d:44:7f:f7:fe:ef:26:cc:c9:71:a6:e4:2f:6b:b7:
                    33:a3:87:93:0a:f0:c8:30:f3:c4:52:4e:1b:ce:59:
                    60:31:41:25:9d:89:52:5c:e2:c8:2b:e2:19:a9:64:
                    bf:33:5c:97:b6:7d:95:b3:f8:50:30:84:cf:e5:3d:
                    48:59:ad:9d:8c:ed:5c:37:9f:41:aa:8c:04:34:e3:
                    54:c0:42:11:fb:04:55:52:8c:99:43:67:74:1b:d5:
                    79:94:08:56:61:4c:71:ae:8d:65:11:c5:25:ad:5f:
                    2d:0c:16:27:5e:40:a5:24:b9:c3:6a:5d:e9:43:36:
                    95:aa:86:59:51:4c:1f:96:be:47:71:cf:8d:ac:30:
                    6c:1c:1e:9b:cd:7e:19:42:83:64:43:8b:8e:ab:8e:
                    16:17:8b:fc:f4:b8:00:be:b7:21:26:6f:aa:94:be:
                    cc:5b:c1:fa:02:e6:13:b0:9f:43:22:67:c8:5c:89:
                    6d:52:9b:ef:bc:8a:4b:94:68:4c:10:41:1a:2f:3c:
                    f0:da:46:a3:94:64:a6:89:ed:43:b4:d2:f1:57:3c:
                    ba:11:22:a7:55:f9:f8:22:fb:1e:85:eb:bb:83:30:
                    5d:ec:a5
                Exponent: 65537 (0x10001)
        X509v3 extensions:
            X509v3 Basic Constraints: 
                CA:FALSE
            X509v3 Subject Key Identifier: 
                E4:23:6F:CB:E6:21:6E:58:6B:E2:A9:EC:D9:92:0E:0F:CC:E3:8E:2B
    Signature Algorithm: sha1WithRSAEncryption
         84:ce:0d:83:82:e8:38:c6:11:4f:d7:d6:61:c7:f5:e6:af:f5:
         18:c4:22:b1:df:71:3c:50:15:10:20:7a:8b:6b:05:e7:a2:dc:
         e8:37:1f:19:85:f5:03:e0:8c:ba:d4:90:19:b5:be:89:dd:a4:
         f7:3e:b8:a4:18:c4:53:ae:d9:9f:c4:70:4c:62:eb:ed:dd:42:
         6c:a5:84:34:f2:e2:f9:fe:2c:89:b2:7f:55:e0:3a:a1:c8:e9:
         f7:59:b0:fb:ca:ad:d9:17:03:77:31:39:3a:bc:df:7c:bb:6c:
         d5:68:c5:e6:bb:f7:db:78:f9:98:3c:dd:7e:99:40:6f:9c:cd:
         e7:b7:a1:3c:15:24:a7:6e:0c:15:af:97:da:1f:19:06:d5:a0:
         3b:b6:04:0b:ee:d1:59:a3:a7:d2:c1:3d:db:54:75:8c:04:84:
         89:96:49:c6:d8:d2:e4:7e:c6:b9:3c:79:ca:10:90:7c:47:89:
         b0:4a:ec:4e:83:e2:a9:02:24:a8:a9:b3:a2:59:78:2a:8a:02:
         3a:1b:42:2a:fe:3b:20:6b:c7:7a:47:89:20:06:8e:a1:a1:1c:
         d6:0f:00:8d:db:34:97:61:39:66:ff:3a:db:3f:bf:e2:76:27:
         96:d1:59:1c:f3:a3:a8:02:d6:3a:81:86:ea:d7:fa:0a:31:88:
         7c:7b:2e:dd:44:61:28:99:33:3f:06:ac:d7:03:af:16:fb:9d:
         13:c7:fc:af:80:c5:24:8b:02:b2:b4:2b:13:db:2b:4d:46:7c:
         56:03:c7:c7:87:e0:52:ce:41:8a:73:19:11:aa:1b:f5:41:6a:
         7b:8a:2c:69:6e:e1:97:22:39:85:26:33:10:36:06:d9:7a:e6:
         10:8b:e3:c9:4c:38:b4:b8:11:cc:84:93:06:67:e5:b5:52:4a:
         73:64:71:31:a0:fd:6e:c4:63:98:d7:7e:35:ab:90:c2:94:9b:
         6d:d2:6a:c4:fa:a3:a1:b8:75:69:b0:eb:60:95:7e:46:0c:dc:
         c3:50:b1:c5:1d:02:c7:c5:aa:f9:00:ac:ce:ce:93:cb:24:f1:
         01:c2:85:06:b9:65:9b:94:3a:57:02:00:bf:80:ff:a8:bc:0f:
         7d:4a:29:f3:fc:46:a5:08:dc:5d:87:26:ee:ca:5a:6b:ce:a7:
         f6:ec:13:a8:e5:9e:d7:23:f1:b5:06:2b:30:00:2c:5c:f5:79:
         57:6f:eb:be:d2:e2:c1:c7:c4:b4:97:48:26:1d:6f:e0:43:42:
         05:e4:b7:7f:a1:f3:33:13:33:9d:38:93:c9:23:2f:97:f2:c7:
         a1:e4:60:1c:eb:bc:83:75:1d:1f:9b:65:65:17:49:00:ba:7d:
         4d:54:33:64:ba:04:1e:a0
-----BEGIN CERTIFICATE-----
MIIFkTCCA3mgAwIBAgIBAjANBgkqhkiG9w0BAQUFADB5MQswCQYDVQQGEwJDWjEa
MBgGA1UECAwRSmlob21vcmF2c2t5IGtyYWoxDTALBgNVBAcMBEJybm8xFjAUBgNV
BAoMDVJlZCBIYXQgQ3plY2gxEjAQBgNVBAsMCURlc2t0b3BRRTETMBEGA1UEAwwK
UmVkIEhhdCBDQTAeFw0yMDA2MDIxOTE4NTlaFw0zMDA1MzExOTE4NTlaMHExCzAJ
BgNVBAYTAkNaMRowGAYDVQQIDBFKaWhvbW9yYXZza3kga3JhajEWMBQGA1UECgwN
UmVkIEhhdCBDemVjaDETMBEGA1UECwwKRGVza3RvcCBRRTEZMBcGA1UEAwwQbGli
cmVzd2FuX2NsaWVudDCCAiIwDQYJKoZIhvcNAQEBBQADggIPADCCAgoCggIBAJuw
WDFfxhcrMJF3J3qUklnZqz1O7xQTF2kyPBGGNNjmDT1clUEFZqogGoSclQs4qYMK
NeAzFOo5GLYDQWNBqBrBsCnl/rMuFi6p/4uT6gAqJL1p5btsmf4gfI1M0iSDmPYt
HScUfGjPjOi9BTxMq+UE7cTUXf+NH2LgwbwtXuJNj16sj0Lmm3JTtDEE0CjZOeTI
GF20eetRnvNbSPfrf4V6ZyROtCON9VAkPyyvzs+wYbC9Uvxe0ASf6FhNqcvbEV1V
Al12yxKW5sCN1EuM36WCJYVRPdxdhC2+Fvy0/OBqzdy2Q5nwRDO5VnPKY/S4TCTJ
70eBNB7FTJk4w9PFAosSOFVNQtPoAH8iQTtPZJN3wJy7EOvMUY8WId7nLUR/9/7v
JszJcabkL2u3M6OHkwrwyDDzxFJOG85ZYDFBJZ2JUlziyCviGalkvzNcl7Z9lbP4
UDCEz+U9SFmtnYztXDefQaqMBDTjVMBCEfsEVVKMmUNndBvVeZQIVmFMca6NZRHF
Ja1fLQwWJ15ApSS5w2pd6UM2laqGWVFMH5a+R3HPjawwbBwem81+GUKDZEOLjquO
FheL/PS4AL63ISZvqpS+zFvB+gLmE7CfQyJnyFyJbVKb77yKS5RoTBBBGi888NpG
o5RkpontQ7TS8Vc8uhEip1X5+CL7HoXru4MwXeylAgMBAAGjLDAqMAkGA1UdEwQC
MAAwHQYDVR0OBBYEFOQjb8vmIW5Ya+Kp7NmSDg/M444rMA0GCSqGSIb3DQEBBQUA
A4ICAQCEzg2Dgug4xhFP19Zhx/Xmr/UYxCKx33E8UBUQIHqLawXnotzoNx8ZhfUD
4Iy61JAZtb6J3aT3PrikGMRTrtmfxHBMYuvt3UJspYQ08uL5/iyJsn9V4DqhyOn3
WbD7yq3ZFwN3MTk6vN98u2zVaMXmu/fbePmYPN1+mUBvnM3nt6E8FSSnbgwVr5fa
HxkG1aA7tgQL7tFZo6fSwT3bVHWMBISJlknG2NLkfsa5PHnKEJB8R4mwSuxOg+Kp
AiSoqbOiWXgqigI6G0Iq/jsga8d6R4kgBo6hoRzWDwCN2zSXYTlm/zrbP7/idieW
0Vkc86OoAtY6gYbq1/oKMYh8ey7dRGEomTM/BqzXA68W+50Tx/yvgMUkiwKytCsT
2ytNRnxWA8fHh+BSzkGKcxkRqhv1QWp7iixpbuGXIjmFJjMQNgbZeuYQi+PJTDi0
uBHMhJMGZ+W1UkpzZHExoP1uxGOY1341q5DClJtt0mrE+qOhuHVpsOtglX5GDNzD
ULHFHQLHxar5AKzOzpPLJPEBwoUGuWWblDpXAgC/gP+ovA99Sinz/EalCNxdhybu
ylprzqf27BOo5Z7XI/G1BiswACxc9XlXb+u+0uLBx8S0l0gmHW/gQ0IF5Ld/ofMz
EzOdOJPJIy+X8seh5GAc67yDdR0fm2VlF0kAun1NVDNkugQeoA==
-----END CERTIFICATE-----
