Certificate:
    Data:
        Version: 3 (0x2)
        Serial Number:
            8b:12:1d:3e:ff:12:94:a4
    Signature Algorithm: sha256WithRSAEncryption
        Issuer: C=CZ, ST=Jihomoravsky kraj, L=Brno, O=Red Hat Czech, OU=DesktopQE, CN=Red Hat CA
        Validity
            Not Before: Aug 30 14:34:29 2017 GMT
            Not After : Aug 30 14:34:29 2027 GMT
        Subject: C=CZ, ST=Jihomoravsky kraj, O=Red Hat Czech, OU=DesktopQE, CN=*.redhat.com
        Subject Public Key Info:
            Public Key Algorithm: rsaEncryption
                Public-Key: (4096 bit)
                Modulus:
                    00:af:32:24:f5:e7:a3:17:48:f6:b9:c8:ff:7d:10:
                    72:89:c9:22:ab:8a:c4:33:e2:17:ea:d9:44:96:8e:
                    83:d2:02:56:2e:49:a5:f0:ac:45:7b:93:80:cf:2b:
                    76:fb:c9:bd:20:a0:b9:69:5c:51:55:1e:d3:5c:c1:
                    a8:a0:3a:52:a0:ec:f7:f0:00:ce:e4:94:4b:c3:11:
                    e3:43:4b:e5:bc:74:e3:f7:04:ad:86:cc:90:ea:c9:
                    0e:42:56:24:45:b2:96:5a:85:1a:58:f7:fd:55:98:
                    c3:1e:b1:ca:33:00:a3:83:29:84:50:9e:b8:d7:fe:
                    0b:5d:fa:df:ac:3c:db:bd:eb:14:bc:3f:62:6b:a1:
                    d4:52:25:8d:96:8e:43:b7:16:1d:b0:f4:40:d0:d0:
                    4a:ab:19:06:b8:35:70:3d:74:3a:e8:ff:a4:39:f6:
                    1d:cb:d2:d9:aa:62:97:f3:7d:aa:9b:f9:d7:f8:c8:
                    d8:8b:a4:dc:9c:37:a7:1d:21:20:a7:96:8b:66:d7:
                    28:01:74:a1:cf:80:68:0f:7a:0d:34:66:46:7e:6b:
                    79:29:d6:b9:ef:0b:d0:80:f1:f5:8e:3b:d3:d4:fd:
                    cf:06:79:55:0d:a2:5e:8e:1c:b6:d8:1d:71:ea:04:
                    1c:96:ab:1e:29:d2:ed:3f:41:bf:29:94:51:ea:ba:
                    37:95:ef:0c:2a:b9:be:fd:5a:fb:96:bd:79:5d:aa:
                    fd:36:10:e4:6a:5e:52:30:ce:3c:2e:e5:57:3d:c0:
                    03:42:f8:c5:73:47:7c:18:3b:a3:5f:21:04:e6:76:
                    9b:2d:f3:c5:12:77:17:e8:6a:ff:45:c9:4a:1e:4c:
                    f9:f2:60:82:70:0d:01:5d:26:6f:9e:e4:17:6f:f8:
                    86:17:19:d3:87:2a:d0:cf:02:b3:da:e7:8e:a3:e7:
                    d6:5b:e5:77:75:87:4b:fe:78:ea:58:57:f6:5b:cc:
                    43:a9:9a:45:3c:6c:20:87:80:91:f2:5f:95:ce:93:
                    a5:25:42:ea:f0:39:a7:59:65:90:35:8b:26:b0:c8:
                    f3:a8:68:b3:9e:89:eb:59:5b:e8:9e:98:f9:70:02:
                    df:e9:a4:a9:15:69:0d:f5:49:66:0a:0d:be:48:87:
                    b8:d4:8a:07:e4:47:ae:71:b6:ae:c4:cc:95:d6:ef:
                    64:a1:df:06:c3:9d:6a:b2:0c:85:e0:d4:17:4e:07:
                    a7:66:53:05:d7:d5:e9:f8:fb:7f:40:11:30:a6:e3:
                    5a:2f:da:03:9d:93:56:09:c4:7b:47:4e:09:16:8b:
                    c3:e2:35:4a:87:16:cd:ad:55:67:75:40:a7:fb:c1:
                    cd:2f:f9:2e:87:fc:46:d0:f1:c4:0a:46:a6:45:ab:
                    76:a8:c5
                Exponent: 65537 (0x10001)
        X509v3 extensions:
            X509v3 Basic Constraints: 
                CA:FALSE
            Netscape Comment: 
                OpenSSL Generated Certificate
            X509v3 Subject Key Identifier: 
                A1:C0:81:AD:43:EC:F2:B2:6F:99:CE:9C:47:49:B7:80:00:94:5D:39
            X509v3 Authority Key Identifier: 
                keyid:8E:EA:91:13:D8:3C:4B:29:AC:A1:EB:D6:3E:C2:6A:B9:1A:5D:66:C3

    Signature Algorithm: sha256WithRSAEncryption
         c3:12:69:1d:8d:d2:52:93:21:0d:0a:c1:ed:7c:6d:64:4b:6a:
         ef:bd:30:fb:6b:81:19:79:ab:ff:4e:63:f3:cd:aa:e6:6c:19:
         d5:b7:82:ec:d0:4d:50:74:c9:64:60:f7:54:a3:42:b7:b9:31:
         c1:b0:30:98:1f:98:81:23:e7:a3:25:6d:a8:fd:39:fb:e5:de:
         d4:73:a1:22:a5:84:42:28:32:ae:e5:3c:43:23:06:12:6e:7c:
         11:35:71:5a:40:d9:2b:14:64:0a:a5:11:aa:51:67:fd:d9:be:
         f7:ad:81:35:9d:9a:48:52:b5:fa:81:ec:ff:41:ae:f2:1e:94:
         5e:4d:ed:98:b6:2b:63:3c:51:7b:41:51:9a:fa:07:01:fa:9f:
         64:f7:3b:1e:da:7f:82:a9:2d:59:74:db:70:dc:19:99:64:d6:
         2f:ae:b2:01:1f:bc:a0:ac:2b:19:bd:89:a6:ed:81:70:77:d2:
         00:2d:55:12:32:7e:b0:d3:67:46:e1:fa:6f:14:ae:14:f9:7b:
         3a:d6:f1:81:71:94:01:b2:f2:d0:28:d8:97:f9:44:23:5a:34:
         bd:bb:56:f3:34:ae:90:ad:16:2e:22:61:63:9f:af:f9:a1:22:
         e3:50:42:8e:5b:fd:6f:4d:6d:f2:37:4d:72:9f:fd:d1:40:ef:
         24:20:e2:2e:d5:85:81:37:3f:4d:77:0c:10:94:c5:7e:a9:a7:
         f2:2c:2d:a9:19:e0:52:8c:95:b0:34:7a:95:dd:a2:23:50:21:
         e1:bb:0c:41:01:3e:d6:a0:f3:19:df:a1:c9:07:e5:61:6b:be:
         e4:be:c9:ed:8c:d2:eb:69:ab:68:30:fd:cd:67:01:a1:ac:d3:
         7d:0e:0b:dc:d5:16:71:78:4d:14:8c:37:31:29:8f:65:31:58:
         d2:c1:66:a4:7f:13:b3:27:cc:09:48:31:d8:43:d6:cb:93:68:
         f4:e3:cb:dd:a7:50:42:fd:58:76:42:66:55:d0:d9:75:b0:8d:
         4d:b8:e8:74:4b:5d:88:19:0a:bb:df:4a:37:9c:6e:4d:be:f1:
         43:ac:17:21:36:29:c9:e7:15:b3:05:2d:cf:1a:85:40:ed:eb:
         4d:c0:2e:4f:ba:a1:1b:c3:c3:b2:49:35:d5:84:60:78:0d:b9:
         8d:d1:80:95:96:42:db:90:8b:20:db:d6:ca:28:72:66:cc:02:
         08:78:7a:e8:58:16:12:fe:a6:43:ed:76:c8:e4:56:7e:2a:6f:
         c2:30:a6:07:11:44:65:45:5c:9a:9f:fd:22:7b:b6:9c:49:33:
         88:af:7e:71:71:a1:b0:a3:9f:12:75:ea:20:f2:c2:70:e5:3e:
         38:b7:f1:ac:2a:0c:dd:60
-----BEGIN CERTIFICATE-----
MIIF4zCCA8ugAwIBAgIJAIsSHT7/EpSkMA0GCSqGSIb3DQEBCwUAMHkxCzAJBgNV
BAYTAkNaMRowGAYDVQQIDBFKaWhvbW9yYXZza3kga3JhajENMAsGA1UEBwwEQnJu
bzEWMBQGA1UECgwNUmVkIEhhdCBDemVjaDESMBAGA1UECwwJRGVza3RvcFFFMRMw
EQYDVQQDDApSZWQgSGF0IENBMB4XDTE3MDgzMDE0MzQyOVoXDTI3MDgzMDE0MzQy
OVowbDELMAkGA1UEBhMCQ1oxGjAYBgNVBAgMEUppaG9tb3JhdnNreSBrcmFqMRYw
FAYDVQQKDA1SZWQgSGF0IEN6ZWNoMRIwEAYDVQQLDAlEZXNrdG9wUUUxFTATBgNV
BAMMDCoucmVkaGF0LmNvbTCCAiIwDQYJKoZIhvcNAQEBBQADggIPADCCAgoCggIB
AK8yJPXnoxdI9rnI/30QconJIquKxDPiF+rZRJaOg9ICVi5JpfCsRXuTgM8rdvvJ
vSCguWlcUVUe01zBqKA6UqDs9/AAzuSUS8MR40NL5bx04/cErYbMkOrJDkJWJEWy
llqFGlj3/VWYwx6xyjMAo4MphFCeuNf+C13636w8273rFLw/Ymuh1FIljZaOQ7cW
HbD0QNDQSqsZBrg1cD10Ouj/pDn2HcvS2apil/N9qpv51/jI2Iuk3Jw3px0hIKeW
i2bXKAF0oc+AaA96DTRmRn5reSnWue8L0IDx9Y4709T9zwZ5VQ2iXo4cttgdceoE
HJarHinS7T9BvymUUeq6N5XvDCq5vv1a+5a9eV2q/TYQ5GpeUjDOPC7lVz3AA0L4
xXNHfBg7o18hBOZ2my3zxRJ3F+hq/0XJSh5M+fJggnANAV0mb57kF2/4hhcZ04cq
0M8Cs9rnjqPn1lvld3WHS/546lhX9lvMQ6maRTxsIIeAkfJflc6TpSVC6vA5p1ll
kDWLJrDI86hos56J61lb6J6Y+XAC3+mkqRVpDfVJZgoNvkiHuNSKB+RHrnG2rsTM
ldbvZKHfBsOdarIMheDUF04Hp2ZTBdfV6fj7f0ARMKbjWi/aA52TVgnEe0dOCRaL
w+I1SocWza1VZ3VAp/vBzS/5Lof8RtDxxApGpkWrdqjFAgMBAAGjezB5MAkGA1Ud
EwQCMAAwLAYJYIZIAYb4QgENBB8WHU9wZW5TU0wgR2VuZXJhdGVkIENlcnRpZmlj
YXRlMB0GA1UdDgQWBBShwIGtQ+zysm+ZzpxHSbeAAJRdOTAfBgNVHSMEGDAWgBSO
6pET2DxLKayh69Y+wmq5Gl1mwzANBgkqhkiG9w0BAQsFAAOCAgEAwxJpHY3SUpMh
DQrB7XxtZEtq770w+2uBGXmr/05j882q5mwZ1beC7NBNUHTJZGD3VKNCt7kxwbAw
mB+YgSPnoyVtqP05++Xe1HOhIqWEQigyruU8QyMGEm58ETVxWkDZKxRkCqURqlFn
/dm+962BNZ2aSFK1+oHs/0Gu8h6UXk3tmLYrYzxRe0FRmvoHAfqfZPc7Htp/gqkt
WXTbcNwZmWTWL66yAR+8oKwrGb2Jpu2BcHfSAC1VEjJ+sNNnRuH6bxSuFPl7Otbx
gXGUAbLy0CjYl/lEI1o0vbtW8zSukK0WLiJhY5+v+aEi41BCjlv9b01t8jdNcp/9
0UDvJCDiLtWFgTc/TXcMEJTFfqmn8iwtqRngUoyVsDR6ld2iI1Ah4bsMQQE+1qDz
Gd+hyQflYWu+5L7J7YzS62mraDD9zWcBoazTfQ4L3NUWcXhNFIw3MSmPZTFY0sFm
pH8TsyfMCUgx2EPWy5No9OPL3adQQv1YdkJmVdDZdbCNTbjodEtdiBkKu99KN5xu
Tb7xQ6wXITYpyecVswUtzxqFQO3rTcAuT7qhG8PDskk11YRgeA25jdGAlZZC25CL
INvWyihyZswCCHh66FgWEv6mQ+12yORWfipvwjCmBxFEZUVcmp/9Inu2nEkziK9+
cXGhsKOfEnXqIPLCcOU+OLfxrCoM3WA=
-----END CERTIFICATE-----
