Certificate:
    Data:
        Version: 3 (0x2)
        Serial Number: 1 (0x1)
        Signature Algorithm: sha256WithRSAEncryption
        Issuer: C=CZ, ST=Jihomoravsky kraj, L=Brno, O=Red Hat Czech, OU=Desktop QE, CN=RedHat
        Validity
            Not Before: Jan 24 12:38:43 2022 GMT
            Not After : Jan 22 12:38:43 2032 GMT
        Subject: C=CZ, ST=Jihomoravsky kraj, O=Red Hat Czech, OU=Desktop QE, CN=libreswan_server
        Subject Public Key Info:
            Public Key Algorithm: rsaEncryption
                Public-Key: (4096 bit)
                Modulus:
                    00:8e:2f:db:e2:a5:9d:ca:e0:56:ca:7f:22:1b:0c:
                    b8:48:36:b6:c3:f0:a1:89:8c:b1:85:32:fe:54:cc:
                    59:83:3c:5c:d1:bf:75:33:da:f5:df:97:ff:f0:41:
                    74:54:dd:f9:47:47:76:b4:63:f5:5e:67:c9:2f:0b:
                    85:0f:b8:2d:ce:a0:eb:9b:0f:f5:cd:d2:00:32:6a:
                    5a:0f:c2:3a:d8:23:ca:15:14:2b:0d:c6:8f:65:c4:
                    6d:7b:87:ad:3e:12:81:6b:d0:29:15:f0:23:ad:bd:
                    d9:2a:26:ff:bc:f4:48:6d:66:90:18:32:74:83:ff:
                    5a:f6:0b:95:4c:be:ae:a4:39:47:fe:8d:ee:1d:a8:
                    f0:02:08:a6:f1:e2:8c:aa:b1:57:11:94:d6:0b:d3:
                    b3:b6:da:d6:b0:03:12:78:ec:22:3c:56:54:23:05:
                    84:25:33:ee:9b:dd:6b:0a:9a:b3:d4:a9:ee:c1:99:
                    f6:f1:47:da:31:41:27:f6:26:47:c7:89:8b:cf:45:
                    d5:e0:23:25:9b:f8:40:61:4c:c6:6e:e2:9b:50:3c:
                    40:4f:be:bb:a2:5e:7d:8a:38:49:f7:9c:1f:4f:ad:
                    8e:cc:42:1f:07:2b:b3:8b:53:c7:0e:f9:e2:f2:bb:
                    dc:66:7d:e4:0c:0e:13:68:70:50:52:e2:52:81:6b:
                    98:1b:e9:85:32:ea:41:45:89:6e:e1:39:61:84:bb:
                    3e:02:71:2d:89:68:ef:9c:71:68:14:85:33:2d:b4:
                    92:ab:ef:d9:d8:b6:67:33:4a:a7:2f:46:e0:fd:75:
                    fe:f0:7c:78:c1:81:a8:c2:2e:28:e9:94:03:6d:d2:
                    7a:5b:e8:02:8e:fb:27:01:55:fe:86:6f:e5:cc:5d:
                    19:7f:00:73:d1:2c:5d:d6:7b:0f:04:8a:fa:a9:cd:
                    1a:a3:61:da:1d:8a:a4:69:45:08:ee:14:e1:61:c0:
                    5c:68:eb:d0:b5:89:c5:e9:27:81:0f:27:7f:da:9f:
                    8e:ac:9c:14:81:99:0a:b2:44:23:74:b3:83:49:ad:
                    5d:87:0a:42:da:74:cd:b4:dc:76:f3:2f:0a:e2:4f:
                    dc:64:27:f9:37:da:ea:36:46:77:eb:51:cb:92:2c:
                    86:86:78:5e:3a:10:88:1f:b8:c2:7e:d0:0c:6e:3c:
                    1b:a8:0c:f4:1c:42:12:7b:cf:1f:f0:5d:04:78:5d:
                    13:95:15:ef:b7:c9:2e:89:b0:06:4f:f3:99:81:20:
                    a6:1c:f8:87:95:2e:47:7d:9d:96:50:bf:04:b6:27:
                    de:9e:57:05:46:e1:4f:09:b6:b9:83:58:57:99:d1:
                    18:5e:71:7a:1e:c0:de:cb:d8:76:b0:74:50:67:22:
                    73:f6:f1
                Exponent: 65537 (0x10001)
        X509v3 extensions:
            X509v3 Basic Constraints: 
                CA:FALSE
            X509v3 Subject Alternative Name: 
                IP Address:11.12.13.14
            X509v3 Subject Key Identifier: 
                44:99:2F:0D:4A:42:F2:FB:BA:92:00:A4:AF:85:EA:E5:AC:FC:DA:3B
            X509v3 Authority Key Identifier: 
                DirName:/C=CZ/ST=Jihomoravsky kraj/L=Brno/O=Red Hat Czech/OU=Desktop QE/CN=RedHat
                serial:56:E3:8D:14:39:D4:A0:D5:F8:BF:EA:E9:9F:C8:DC:6F:5A:78:75:DE
    Signature Algorithm: sha256WithRSAEncryption
    Signature Value:
        af:3f:17:36:59:1d:bd:e1:57:89:94:27:7d:d5:e3:a7:56:f7:
        27:54:77:df:80:d1:55:a2:6c:fd:35:57:73:06:b3:f7:8c:3c:
        d1:c2:df:d3:04:e1:fe:f0:bb:64:f8:49:04:01:6a:f1:22:dc:
        c4:a0:d2:e3:60:7d:49:e9:09:81:4e:57:cc:4f:f6:bd:94:ba:
        97:ad:34:02:ac:a4:ec:c6:93:99:c3:6a:33:a7:5d:f1:08:80:
        f2:01:ce:85:85:4c:10:ad:01:e8:99:90:63:c9:55:b5:d6:87:
        ed:3b:af:da:0d:72:0f:b0:1c:a4:f1:67:48:33:19:68:8a:43:
        67:11:80:66:ce:df:c7:4d:15:84:59:a9:17:2e:f4:49:ea:43:
        38:9e:de:25:dc:3f:50:17:4a:e6:80:8a:62:2d:66:4e:d0:69:
        40:dc:b7:77:e6:2c:1c:ec:d9:77:25:c2:c8:d6:19:a9:1a:0a:
        25:2f:8d:72:91:71:cf:4e:e8:6c:c3:73:1f:77:b1:a3:3e:5f:
        42:b0:24:a5:fd:be:4a:ac:d5:cf:e3:8c:65:4f:2d:af:60:6f:
        49:9e:41:75:4b:b7:f7:57:90:30:fe:7a:07:58:3f:c7:11:a8:
        4b:e6:a1:14:af:8d:2a:65:ea:ff:05:5f:54:f3:aa:87:f4:12:
        e0:a7:13:b9:13:4f:f0:c3:af:9a:5a:2e:35:9b:ef:68:ac:eb:
        f1:25:3d:50:65:3e:34:5f:49:7d:dd:90:2f:08:42:7a:f8:ee:
        4f:71:89:af:c3:43:31:00:10:7c:5f:61:ec:b0:c5:45:80:73:
        83:d6:5e:3d:f0:c0:70:3b:be:5a:51:19:c0:02:c0:0e:70:07:
        1c:bc:35:36:ef:39:63:4d:02:09:1d:cd:52:02:41:67:d5:8e:
        e6:a9:e0:da:d3:0e:ce:f3:3a:27:31:42:ac:85:7f:c7:b1:34:
        d3:fd:ef:f4:3f:d4:81:a3:cb:01:2b:b4:23:b7:ba:44:32:f4:
        99:3d:f8:07:4a:c9:07:8c:ef:4c:e6:31:51:cd:dc:59:f4:ea:
        5f:b2:a6:da:38:8b:59:0c:16:4f:72:57:80:5c:60:f4:56:9f:
        b6:17:6d:de:73:c4:46:bd:96:01:34:a6:f2:4f:d5:9f:bd:af:
        5c:11:eb:11:53:58:d1:36:ac:72:3d:a3:ee:72:58:6c:d5:b2:
        bc:3b:ea:51:c4:38:08:dd:f1:4e:76:06:01:4a:40:66:52:b7:
        4c:8f:fc:96:c4:2c:29:d4:09:ba:2d:74:55:60:97:32:6c:ab:
        16:80:eb:65:44:7b:6f:61:3a:00:b4:63:59:82:cd:aa:95:8a:
        15:f4:54:36:df:86:67:ab
-----BEGIN CERTIFICATE-----
MIIGQTCCBCmgAwIBAgIBATANBgkqhkiG9w0BAQsFADB2MQswCQYDVQQGEwJDWjEa
MBgGA1UECAwRSmlob21vcmF2c2t5IGtyYWoxDTALBgNVBAcMBEJybm8xFjAUBgNV
BAoMDVJlZCBIYXQgQ3plY2gxEzARBgNVBAsMCkRlc2t0b3AgUUUxDzANBgNVBAMM
BlJlZEhhdDAeFw0yMjAxMjQxMjM4NDNaFw0zMjAxMjIxMjM4NDNaMHExCzAJBgNV
BAYTAkNaMRowGAYDVQQIDBFKaWhvbW9yYXZza3kga3JhajEWMBQGA1UECgwNUmVk
IEhhdCBDemVjaDETMBEGA1UECwwKRGVza3RvcCBRRTEZMBcGA1UEAwwQbGlicmVz
d2FuX3NlcnZlcjCCAiIwDQYJKoZIhvcNAQEBBQADggIPADCCAgoCggIBAI4v2+Kl
ncrgVsp/IhsMuEg2tsPwoYmMsYUy/lTMWYM8XNG/dTPa9d+X//BBdFTd+UdHdrRj
9V5nyS8LhQ+4Lc6g65sP9c3SADJqWg/COtgjyhUUKw3Gj2XEbXuHrT4SgWvQKRXw
I6292Som/7z0SG1mkBgydIP/WvYLlUy+rqQ5R/6N7h2o8AIIpvHijKqxVxGU1gvT
s7ba1rADEnjsIjxWVCMFhCUz7pvdawqas9Sp7sGZ9vFH2jFBJ/YmR8eJi89F1eAj
JZv4QGFMxm7im1A8QE++u6JefYo4SfecH0+tjsxCHwcrs4tTxw754vK73GZ95AwO
E2hwUFLiUoFrmBvphTLqQUWJbuE5YYS7PgJxLYlo75xxaBSFMy20kqvv2di2ZzNK
py9G4P11/vB8eMGBqMIuKOmUA23SelvoAo77JwFV/oZv5cxdGX8Ac9EsXdZ7DwSK
+qnNGqNh2h2KpGlFCO4U4WHAXGjr0LWJxekngQ8nf9qfjqycFIGZCrJEI3Szg0mt
XYcKQtp0zbTcdvMvCuJP3GQn+Tfa6jZGd+tRy5IshoZ4XjoQiB+4wn7QDG48G6gM
9BxCEnvPH/BdBHhdE5UV77fJLomwBk/zmYEgphz4h5UuR32dllC/BLYn3p5XBUbh
Twm2uYNYV5nRGF5xeh7A3svYdrB0UGcic/bxAgMBAAGjgd4wgdswCQYDVR0TBAIw
ADAPBgNVHREECDAGhwQLDA0OMB0GA1UdDgQWBBREmS8NSkLy+7qSAKSvherlrPza
OzCBnQYDVR0jBIGVMIGSoXqkeDB2MQswCQYDVQQGEwJDWjEaMBgGA1UECAwRSmlo
b21vcmF2c2t5IGtyYWoxDTALBgNVBAcMBEJybm8xFjAUBgNVBAoMDVJlZCBIYXQg
Q3plY2gxEzARBgNVBAsMCkRlc2t0b3AgUUUxDzANBgNVBAMMBlJlZEhhdIIUVuON
FDnUoNX4v+rpn8jcb1p4dd4wDQYJKoZIhvcNAQELBQADggIBAK8/FzZZHb3hV4mU
J33V46dW9ydUd9+A0VWibP01V3MGs/eMPNHC39ME4f7wu2T4SQQBavEi3MSg0uNg
fUnpCYFOV8xP9r2UupetNAKspOzGk5nDajOnXfEIgPIBzoWFTBCtAeiZkGPJVbXW
h+07r9oNcg+wHKTxZ0gzGWiKQ2cRgGbO38dNFYRZqRcu9EnqQzie3iXcP1AXSuaA
imItZk7QaUDct3fmLBzs2XclwsjWGakaCiUvjXKRcc9O6GzDcx93saM+X0KwJKX9
vkqs1c/jjGVPLa9gb0meQXVLt/dXkDD+egdYP8cRqEvmoRSvjSpl6v8FX1Tzqof0
EuCnE7kTT/DDr5paLjWb72is6/ElPVBlPjRfSX3dkC8IQnr47k9xia/DQzEAEHxf
YeywxUWAc4PWXj3wwHA7vlpRGcACwA5wBxy8NTbvOWNNAgkdzVICQWfVjuap4NrT
Ds7zOicxQqyFf8exNNP97/Q/1IGjywErtCO3ukQy9Jk9+AdKyQeM70zmMVHN3Fn0
6l+ypto4i1kMFk9yV4BcYPRWn7YXbd5zxEa9lgE0pvJP1Z+9r1wR6xFTWNE2rHI9
o+5yWGzVsrw76lHEOAjd8U52BgFKQGZSt0yP/JbELCnUCbotdFVglzJsqxaA62VE
e29hOgC0Y1mCzaqVihX0VDbfhmer
-----END CERTIFICATE-----
