Certificate:
    Data:
        Version: 3 (0x2)
        Serial Number: 1 (0x1)
        Signature Algorithm: sha1WithRSAEncryption
        Issuer: C=CZ, ST=Jihomoravsky kraj, L=Brno, O=Red Hat Czech, OU=Desktop QE, CN=RedHat
        Validity
            Not Before: Jan 20 12:58:36 2022 GMT
            Not After : Jan 18 12:58:36 2032 GMT
        Subject: C=CZ, ST=Jihomoravsky kraj, O=Red Hat Czech, OU=Desktop QE, CN=libreswan_server
        Subject Public Key Info:
            Public Key Algorithm: rsaEncryption
                Public-Key: (4096 bit)
                Modulus:
                    00:d2:13:27:a4:f2:dd:14:c5:51:f1:73:67:9f:11:
                    c9:b0:e6:88:46:c8:ac:c2:49:9b:91:83:0a:00:5a:
                    bf:cb:38:5a:f6:ed:42:25:50:18:0e:f6:28:d3:46:
                    4a:8a:b6:31:3b:91:39:36:fb:e4:e6:75:65:7c:e0:
                    59:e9:52:3a:b6:ea:4c:47:ff:cd:5d:55:d7:e0:70:
                    4d:cd:71:3f:7a:de:c2:24:92:da:98:a8:79:3e:ef:
                    a5:8b:cf:b2:bf:18:b7:67:5d:b2:f3:f7:33:44:a2:
                    bf:f4:8d:46:f6:87:d1:ab:3c:92:ab:31:8f:fe:b7:
                    c7:e2:3d:ca:e8:83:7d:9d:5d:7b:c9:98:79:1b:f7:
                    35:07:ed:5d:56:28:db:9e:40:b9:49:d7:f3:e6:8c:
                    35:1f:05:48:44:c0:44:8c:1d:2e:61:98:18:ca:ff:
                    85:92:16:70:07:c6:c2:b5:89:66:00:f8:a2:00:90:
                    a4:c1:0c:06:19:c4:7d:e1:ec:21:b8:18:f4:ca:1c:
                    2d:85:66:89:67:f5:b0:57:4b:29:80:35:f6:e3:5c:
                    c9:08:86:93:33:dd:9e:6b:94:8a:98:29:be:3b:39:
                    04:94:fe:8c:aa:2b:54:c8:64:50:62:d1:c8:52:7b:
                    a0:14:15:e4:92:8d:69:6d:2f:75:47:3f:7d:04:4e:
                    7f:df:6a:16:d4:06:00:40:12:e6:56:2b:73:35:4c:
                    3b:11:53:14:b1:3c:6c:53:76:63:36:46:26:2e:79:
                    7f:7a:ce:13:ae:f3:6c:13:98:20:13:00:ab:29:0b:
                    cb:f5:bf:95:1f:bd:c2:cf:c0:bb:9b:37:02:2f:70:
                    5f:8f:1a:3c:b1:cf:e6:f5:a1:ba:15:2d:9c:92:80:
                    04:d3:fd:7d:5f:ce:43:8c:6e:c7:0e:02:23:73:44:
                    4a:af:c0:3b:06:47:4e:77:87:b6:dd:7c:30:15:c5:
                    2a:c0:65:17:55:f0:ab:e4:eb:b8:bb:0b:80:00:39:
                    20:30:75:b1:5a:ea:ec:32:cf:b8:50:3a:b8:57:72:
                    fc:2c:94:a6:cf:75:29:9d:41:46:6a:d8:b7:96:d8:
                    cb:3d:f2:23:b5:61:3c:97:51:9f:2c:4d:f3:cd:0f:
                    af:e0:37:c9:61:a8:4e:a4:ab:6c:14:50:ed:16:11:
                    32:9c:ab:32:54:f0:a2:3d:c3:35:4d:d1:7a:03:68:
                    2c:05:27:85:5f:2f:b2:b7:1b:a8:31:95:05:86:99:
                    e0:be:5c:e7:a3:1a:03:7f:8e:b8:20:ea:04:77:04:
                    45:79:61:91:8b:f4:be:77:04:92:be:ba:0f:58:7d:
                    c6:a1:c3:b7:9c:25:45:0c:8c:5f:ec:91:1b:1e:58:
                    94:05:dd
                Exponent: 65537 (0x10001)
        X509v3 extensions:
            X509v3 Basic Constraints: 
                CA:FALSE
            X509v3 Subject Alternative Name: 
                IP Address:11.12.13.14
            X509v3 Subject Key Identifier: 
                D6:52:8C:23:CC:9A:07:F4:F9:F0:1C:4D:70:31:B8:A2:13:A5:94:DC
            X509v3 Authority Key Identifier: 
                DirName:/C=CZ/ST=Jihomoravsky kraj/L=Brno/O=Red Hat Czech/OU=Desktop QE/CN=RedHat
                serial:56:E3:8D:14:39:D4:A0:D5:F8:BF:EA:E9:9F:C8:DC:6F:5A:78:75:DE
    Signature Algorithm: sha1WithRSAEncryption
    Signature Value:
        4d:44:1d:6c:25:83:56:01:4e:5b:72:3e:8b:b2:fe:e1:f4:34:
        cd:66:86:ee:f7:db:88:2e:6f:60:34:90:30:2d:f2:ab:6f:fe:
        ca:5b:65:a6:80:9f:9e:59:9b:b1:32:d8:62:34:06:55:de:9e:
        04:a7:af:56:ba:d8:e2:68:b6:42:ce:d4:ca:03:d9:78:a5:59:
        b4:5c:3b:93:29:ac:b2:70:72:77:8e:19:a5:dd:e9:7d:f7:ec:
        dc:c5:ba:cf:63:da:8d:81:37:56:31:5c:33:27:7b:86:46:62:
        bb:fe:b6:8e:0a:57:ad:03:1a:ff:73:89:12:e2:73:8b:be:cd:
        a7:8a:15:83:3e:16:55:51:66:58:42:d5:d0:c5:1b:76:0d:f5:
        d9:18:45:f2:d1:ad:2e:65:ec:fe:c9:1d:20:31:b1:e7:40:4b:
        03:86:d5:b0:33:cc:04:b0:ca:4e:39:1a:41:ec:da:4c:d0:ad:
        ec:3b:b4:91:24:4b:19:69:2a:74:9f:81:88:dc:8e:eb:28:73:
        eb:d9:9b:14:26:24:ce:cf:a6:ea:ae:4c:96:df:e2:35:9d:a8:
        d9:a3:51:66:af:e0:61:4c:93:b1:54:ef:13:79:b3:7b:68:6a:
        f0:08:3a:28:dd:52:61:bf:a2:b1:ab:58:c8:eb:2e:fb:8d:f2:
        f2:02:ad:4c:eb:90:7c:7c:55:eb:ef:af:7e:21:ac:3d:95:b9:
        14:6b:5a:a6:88:d7:b3:ac:43:a4:93:41:62:cb:4f:76:eb:9c:
        91:88:1b:ce:62:9a:f1:6d:24:0a:d7:e7:9b:ee:41:81:ea:f7:
        02:97:76:c6:f0:8b:ee:bf:8b:9d:91:1a:c8:6e:cf:84:e1:97:
        ac:31:40:ed:24:3e:98:15:f7:b9:5a:57:59:53:5e:fe:03:78:
        4d:0c:e4:83:12:f4:44:53:59:2a:14:e1:c4:9a:3b:1f:da:8d:
        4e:3f:1f:63:fd:0e:f5:ae:f2:58:c7:81:56:3d:a4:89:a9:c2:
        44:23:3c:17:53:27:da:0e:b1:8a:05:07:5c:7d:3b:50:37:80:
        13:29:2a:b5:97:27:3d:06:f4:d9:71:0f:b3:f5:82:2c:1f:83:
        f2:0c:7d:cb:5a:6b:06:c2:c3:b0:98:ce:08:ef:77:00:be:94:
        fd:dd:e1:cd:91:5e:90:16:3c:29:bf:8c:e2:31:e7:8c:44:20:
        88:a4:ef:15:db:37:a2:7b:be:ea:0a:b6:d3:94:e7:06:dc:8f:
        68:b6:b2:dd:fe:cb:dd:c1:1a:0c:13:9e:2e:a7:5c:e3:92:05:
        fe:25:ab:4e:f0:b7:1f:76:44:53:00:fd:2f:5e:42:f0:b7:8e:
        e4:e7:e2:48:13:d7:77:d9
-----BEGIN CERTIFICATE-----
MIIGQTCCBCmgAwIBAgIBATANBgkqhkiG9w0BAQUFADB2MQswCQYDVQQGEwJDWjEa
MBgGA1UECAwRSmlob21vcmF2c2t5IGtyYWoxDTALBgNVBAcMBEJybm8xFjAUBgNV
BAoMDVJlZCBIYXQgQ3plY2gxEzARBgNVBAsMCkRlc2t0b3AgUUUxDzANBgNVBAMM
BlJlZEhhdDAeFw0yMjAxMjAxMjU4MzZaFw0zMjAxMTgxMjU4MzZaMHExCzAJBgNV
BAYTAkNaMRowGAYDVQQIDBFKaWhvbW9yYXZza3kga3JhajEWMBQGA1UECgwNUmVk
IEhhdCBDemVjaDETMBEGA1UECwwKRGVza3RvcCBRRTEZMBcGA1UEAwwQbGlicmVz
d2FuX3NlcnZlcjCCAiIwDQYJKoZIhvcNAQEBBQADggIPADCCAgoCggIBANITJ6Ty
3RTFUfFzZ58RybDmiEbIrMJJm5GDCgBav8s4WvbtQiVQGA72KNNGSoq2MTuROTb7
5OZ1ZXzgWelSOrbqTEf/zV1V1+BwTc1xP3rewiSS2pioeT7vpYvPsr8Yt2ddsvP3
M0Siv/SNRvaH0as8kqsxj/63x+I9yuiDfZ1de8mYeRv3NQftXVYo255AuUnX8+aM
NR8FSETARIwdLmGYGMr/hZIWcAfGwrWJZgD4ogCQpMEMBhnEfeHsIbgY9MocLYVm
iWf1sFdLKYA19uNcyQiGkzPdnmuUipgpvjs5BJT+jKorVMhkUGLRyFJ7oBQV5JKN
aW0vdUc/fQROf99qFtQGAEAS5lYrczVMOxFTFLE8bFN2YzZGJi55f3rOE67zbBOY
IBMAqykLy/W/lR+9ws/Au5s3Ai9wX48aPLHP5vWhuhUtnJKABNP9fV/OQ4xuxw4C
I3NESq/AOwZHTneHtt18MBXFKsBlF1Xwq+TruLsLgAA5IDB1sVrq7DLPuFA6uFdy
/CyUps91KZ1BRmrYt5bYyz3yI7VhPJdRnyxN880Pr+A3yWGoTqSrbBRQ7RYRMpyr
MlTwoj3DNU3RegNoLAUnhV8vsrcbqDGVBYaZ4L5c56MaA3+OuCDqBHcERXlhkYv0
vncEkr66D1h9xqHDt5wlRQyMX+yRGx5YlAXdAgMBAAGjgd4wgdswCQYDVR0TBAIw
ADAPBgNVHREECDAGhwQLDA0OMB0GA1UdDgQWBBTWUowjzJoH9PnwHE1wMbiiE6WU
3DCBnQYDVR0jBIGVMIGSoXqkeDB2MQswCQYDVQQGEwJDWjEaMBgGA1UECAwRSmlo
b21vcmF2c2t5IGtyYWoxDTALBgNVBAcMBEJybm8xFjAUBgNVBAoMDVJlZCBIYXQg
Q3plY2gxEzARBgNVBAsMCkRlc2t0b3AgUUUxDzANBgNVBAMMBlJlZEhhdIIUVuON
FDnUoNX4v+rpn8jcb1p4dd4wDQYJKoZIhvcNAQEFBQADggIBAE1EHWwlg1YBTlty
Pouy/uH0NM1mhu7324gub2A0kDAt8qtv/spbZaaAn55Zm7Ey2GI0BlXengSnr1a6
2OJotkLO1MoD2XilWbRcO5MprLJwcneOGaXd6X337NzFus9j2o2BN1YxXDMne4ZG
Yrv+to4KV60DGv9ziRLic4u+zaeKFYM+FlVRZlhC1dDFG3YN9dkYRfLRrS5l7P7J
HSAxsedASwOG1bAzzASwyk45GkHs2kzQrew7tJEkSxlpKnSfgYjcjusoc+vZmxQm
JM7PpuquTJbf4jWdqNmjUWav4GFMk7FU7xN5s3toavAIOijdUmG/orGrWMjrLvuN
8vICrUzrkHx8Vevvr34hrD2VuRRrWqaI17OsQ6STQWLLT3brnJGIG85imvFtJArX
55vuQYHq9wKXdsbwi+6/i52RGshuz4Thl6wxQO0kPpgV97laV1lTXv4DeE0M5IMS
9ERTWSoU4cSaOx/ajU4/H2P9DvWu8ljHgVY9pImpwkQjPBdTJ9oOsYoFB1x9O1A3
gBMpKrWXJz0G9NlxD7P1giwfg/IMfctaawbCw7CYzgjvdwC+lP3d4c2RXpAWPCm/
jOIx54xEIIik7xXbN6J7vuoKttOU5wbcj2i2st3+y93BGgwTni6nXOOSBf4lq07w
tx92RFMA/S9eQvC3juTn4kgT13fZ
-----END CERTIFICATE-----
