Certificate:
    Data:
        Version: 3 (0x2)
        Serial Number: 1 (0x1)
        Signature Algorithm: sha1WithRSAEncryption
        Issuer: C=CZ, ST=Jihomoravsky kraj, L=Brno, O=Red Hat Czech, OU=Desktop QE, CN=RedHat
        Validity
            Not Before: Jul  7 10:07:35 2020 GMT
            Not After : Jul  5 10:07:35 2030 GMT
        Subject: C=CZ, ST=Jihomoravsky kraj, O=Red Hat Czech, OU=Desktop QE, CN=libreswan_server
        Subject Public Key Info:
            Public Key Algorithm: rsaEncryption
                RSA Public-Key: (4096 bit)
                Modulus:
                    00:cb:15:42:18:e2:c7:30:c5:aa:ff:4b:a2:12:35:
                    4c:64:0d:a0:93:0a:50:28:c5:4e:48:17:95:33:26:
                    c3:78:fd:2c:aa:f6:f2:a3:a4:ff:f2:fc:58:30:23:
                    3d:c3:de:9b:3f:65:42:f4:1d:f5:d2:f3:b4:8d:4b:
                    8c:ed:1c:b3:35:b7:30:ef:2e:cb:47:fd:40:00:37:
                    38:7c:cc:3f:65:c6:11:4f:bf:f0:74:13:ad:a3:44:
                    cc:59:ee:df:a4:b2:10:6a:e6:c8:8d:00:77:5b:7a:
                    01:70:1c:88:5f:53:5c:42:4b:db:b8:8f:1b:de:97:
                    b3:56:e4:15:59:99:43:20:6e:53:73:d1:65:e8:e8:
                    ba:33:e7:f9:f9:f6:59:3b:52:58:47:59:07:1c:ad:
                    ab:bd:98:ad:6d:f9:32:43:f2:8c:e0:ca:f7:bd:2e:
                    0c:1b:45:ed:26:41:e8:1a:71:27:5f:40:ca:77:d4:
                    ba:cb:42:f9:30:9e:97:f4:28:94:f2:dd:25:06:f8:
                    91:2c:ba:c1:f4:5b:02:df:0f:61:f9:c8:07:d9:36:
                    ee:40:e6:2e:4c:67:89:2f:3d:b4:24:b1:76:e1:de:
                    d2:7d:85:0c:02:d8:19:04:4f:99:4e:64:bf:81:aa:
                    eb:ce:6f:ba:d1:b9:c2:e7:5d:a7:c1:e9:f1:0e:7b:
                    cb:49:6c:df:05:3b:b9:d9:20:18:fa:16:5c:b4:00:
                    6a:a3:e6:05:e0:bc:49:b8:98:4d:04:c0:3d:ae:9f:
                    09:95:cb:31:99:d9:08:52:5f:97:a0:6f:08:4c:40:
                    af:35:b7:f4:c2:ff:47:2c:62:80:8b:28:20:4e:f6:
                    d8:69:30:63:1b:3b:be:86:d7:87:c8:04:ac:93:20:
                    51:6a:f2:21:3e:e7:5f:ee:37:65:82:64:c8:24:1c:
                    88:95:84:40:36:62:68:74:f6:b4:29:e0:87:e5:bc:
                    cc:29:47:d6:61:be:a6:8f:ba:d0:01:de:86:d2:88:
                    d4:e0:7f:1d:71:4d:b7:72:f6:30:b1:75:f0:46:b2:
                    84:16:26:06:63:e9:f0:11:0a:01:7d:65:d3:1e:b1:
                    ee:b3:00:66:72:02:8b:e8:f2:3d:3b:e6:02:66:fb:
                    48:83:67:fb:eb:cd:8c:4c:97:68:62:ed:f5:23:7c:
                    a4:a4:2c:f1:3f:9d:9c:c7:83:1f:85:bb:bc:ac:21:
                    d7:a2:2d:fc:7c:1f:b9:86:df:7f:8a:12:e5:92:64:
                    cb:f7:1c:4d:94:d6:cb:6e:10:7a:e8:a6:65:e8:16:
                    40:37:84:08:7a:ba:d7:c3:39:54:e8:52:4e:33:cf:
                    47:d1:b6:08:11:2d:0d:b2:00:e8:2e:6f:17:8a:39:
                    5b:57:ff
                Exponent: 65537 (0x10001)
        X509v3 extensions:
            X509v3 Basic Constraints: 
                CA:FALSE
            X509v3 Subject Alternative Name: 
                IP Address:11.12.13.14
            X509v3 Subject Key Identifier: 
                0E:32:0B:B4:41:30:2B:19:A0:65:4A:F8:19:AF:A0:0F:B8:32:85:58
    Signature Algorithm: sha1WithRSAEncryption
         92:a4:60:b2:cf:64:ff:63:37:64:7a:03:38:b2:9e:da:e3:9d:
         47:56:67:d5:78:c1:94:92:9b:1b:9e:1d:9d:0b:17:a8:11:b5:
         fd:57:b4:fc:03:f9:3d:8f:3d:a4:d5:94:42:84:5e:fa:e1:24:
         bb:3c:f1:60:61:03:10:86:a2:55:c1:37:9b:a4:0e:1e:f5:11:
         77:ff:65:1a:ea:9d:77:96:16:bd:a7:48:3a:17:cd:ba:2a:24:
         4d:0f:f5:76:4f:90:f6:83:e3:91:91:17:db:b4:35:2c:d7:9c:
         07:a0:b5:54:4f:80:cd:b8:04:a0:e0:26:1b:23:e2:d4:27:51:
         48:57:13:bb:db:a4:32:41:a9:f1:77:db:90:6d:73:39:25:00:
         3b:8e:99:88:c4:a9:99:94:db:4e:88:53:1a:aa:55:42:e3:1b:
         3c:c7:21:16:90:ce:68:7a:f9:cf:ec:8d:3c:60:75:82:5d:ee:
         6d:d4:61:fd:c5:9e:63:97:34:8d:ca:4e:86:05:5a:81:b9:3e:
         f8:a0:58:65:a5:d8:f1:5c:24:67:c2:80:14:0f:e8:4f:ea:41:
         dc:a3:26:fb:bc:ef:73:c1:f1:91:a3:18:42:bb:67:8e:fc:33:
         ec:c8:d0:71:1e:fe:d5:49:b6:bd:19:e5:96:55:f1:84:0e:ff:
         e7:8e:24:9a:42:52:32:ea:fd:e2:d7:fa:33:a1:ea:4b:b0:49:
         2e:ee:81:fb:70:a9:85:56:78:bf:43:5e:20:26:c6:2f:3d:eb:
         33:a9:1f:c7:28:1b:27:06:54:a0:64:b4:99:36:5e:77:20:b9:
         63:28:24:bf:66:32:16:19:dc:52:65:a0:ee:95:01:28:fa:7e:
         e3:13:97:b7:f3:86:2c:08:7c:32:d8:b7:6e:82:36:b8:52:2b:
         60:29:9d:71:01:71:e6:14:c7:e0:2b:83:d4:36:94:7e:ba:1b:
         ae:a3:05:7e:d2:3a:5d:1f:dd:34:59:cb:9c:18:47:41:09:78:
         8c:a6:dc:a5:10:22:12:46:f4:40:8b:42:14:0a:1c:de:a3:3d:
         d0:6b:de:4e:11:9e:2e:b0:09:dd:76:4d:87:6f:a3:01:a2:23:
         1c:ef:62:6d:ff:25:a2:46:a1:ce:52:64:31:41:e3:9f:cb:65:
         20:b5:1c:6a:cc:ca:40:59:f6:57:b7:23:08:f0:fb:35:eb:be:
         76:10:67:72:f9:13:5f:52:df:11:d9:b3:d4:05:18:b1:e2:fb:
         c7:db:99:8e:1f:db:74:cc:e7:a3:ca:63:d5:e3:d8:26:73:06:
         f3:1f:9c:47:2c:b4:22:9b:65:bf:2a:07:c5:82:06:28:1d:4b:
         3e:2f:fe:3a:da:47:72:a2
-----BEGIN CERTIFICATE-----
MIIFnzCCA4egAwIBAgIBATANBgkqhkiG9w0BAQUFADB2MQswCQYDVQQGEwJDWjEa
MBgGA1UECAwRSmlob21vcmF2c2t5IGtyYWoxDTALBgNVBAcMBEJybm8xFjAUBgNV
BAoMDVJlZCBIYXQgQ3plY2gxEzARBgNVBAsMCkRlc2t0b3AgUUUxDzANBgNVBAMM
BlJlZEhhdDAeFw0yMDA3MDcxMDA3MzVaFw0zMDA3MDUxMDA3MzVaMHExCzAJBgNV
BAYTAkNaMRowGAYDVQQIDBFKaWhvbW9yYXZza3kga3JhajEWMBQGA1UECgwNUmVk
IEhhdCBDemVjaDETMBEGA1UECwwKRGVza3RvcCBRRTEZMBcGA1UEAwwQbGlicmVz
d2FuX3NlcnZlcjCCAiIwDQYJKoZIhvcNAQEBBQADggIPADCCAgoCggIBAMsVQhji
xzDFqv9LohI1TGQNoJMKUCjFTkgXlTMmw3j9LKr28qOk//L8WDAjPcPemz9lQvQd
9dLztI1LjO0cszW3MO8uy0f9QAA3OHzMP2XGEU+/8HQTraNEzFnu36SyEGrmyI0A
d1t6AXAciF9TXEJL27iPG96Xs1bkFVmZQyBuU3PRZejoujPn+fn2WTtSWEdZBxyt
q72YrW35MkPyjODK970uDBtF7SZB6BpxJ19AynfUustC+TCel/QolPLdJQb4kSy6
wfRbAt8PYfnIB9k27kDmLkxniS89tCSxduHe0n2FDALYGQRPmU5kv4Gq685vutG5
wuddp8Hp8Q57y0ls3wU7udkgGPoWXLQAaqPmBeC8SbiYTQTAPa6fCZXLMZnZCFJf
l6BvCExArzW39ML/RyxigIsoIE722GkwYxs7vobXh8gErJMgUWryIT7nX+43ZYJk
yCQciJWEQDZiaHT2tCngh+W8zClH1mG+po+60AHehtKI1OB/HXFNt3L2MLF18Eay
hBYmBmPp8BEKAX1l0x6x7rMAZnICi+jyPTvmAmb7SINn++vNjEyXaGLt9SN8pKQs
8T+dnMeDH4W7vKwh16It/HwfuYbff4oS5ZJky/ccTZTWy24QeuimZegWQDeECHq6
18M5VOhSTjPPR9G2CBEtDbIA6C5vF4o5W1f/AgMBAAGjPTA7MAkGA1UdEwQCMAAw
DwYDVR0RBAgwBocECwwNDjAdBgNVHQ4EFgQUDjILtEEwKxmgZUr4Ga+gD7gyhVgw
DQYJKoZIhvcNAQEFBQADggIBAJKkYLLPZP9jN2R6AziyntrjnUdWZ9V4wZSSmxue
HZ0LF6gRtf1XtPwD+T2PPaTVlEKEXvrhJLs88WBhAxCGolXBN5ukDh71EXf/ZRrq
nXeWFr2nSDoXzboqJE0P9XZPkPaD45GRF9u0NSzXnAegtVRPgM24BKDgJhsj4tQn
UUhXE7vbpDJBqfF325BtczklADuOmYjEqZmU206IUxqqVULjGzzHIRaQzmh6+c/s
jTxgdYJd7m3UYf3FnmOXNI3KToYFWoG5PvigWGWl2PFcJGfCgBQP6E/qQdyjJvu8
73PB8ZGjGEK7Z478M+zI0HEe/tVJtr0Z5ZZV8YQO/+eOJJpCUjLq/eLX+jOh6kuw
SS7ugftwqYVWeL9DXiAmxi896zOpH8coGycGVKBktJk2XncguWMoJL9mMhYZ3FJl
oO6VASj6fuMTl7fzhiwIfDLYt26CNrhSK2ApnXEBceYUx+Arg9Q2lH66G66jBX7S
Ol0f3TRZy5wYR0EJeIym3KUQIhJG9ECLQhQKHN6jPdBr3k4Rni6wCd12TYdvowGi
IxzvYm3/JaJGoc5SZDFB45/LZSC1HGrMykBZ9le3Iwjw+zXrvnYQZ3L5E19S3xHZ
s9QFGLHi+8fbmY4f23TM56PKY9Xj2CZzBvMfnEcstCKbZb8qB8WCBigdSz4v/jra
R3Ki
-----END CERTIFICATE-----
