Certificate:
    Data:
        Version: 3 (0x2)
        Serial Number: 2 (0x2)
        Signature Algorithm: sha256WithRSAEncryption
        Issuer: C=CZ, ST=Jihomoravsky kraj, L=Brno, O=Red Hat Czech, OU=Desktop QE, CN=RedHat
        Validity
            Not Before: Jan 24 12:39:01 2022 GMT
            Not After : Jan 22 12:39:01 2032 GMT
        Subject: C=CZ, ST=Jihomoravsky kraj, O=Red Hat Czech, OU=Desktop QE, CN=libreswan_client
        Subject Public Key Info:
            Public Key Algorithm: rsaEncryption
                Public-Key: (4096 bit)
                Modulus:
                    00:d9:a3:c3:04:6b:5a:35:6b:a9:35:0c:f8:48:61:
                    e6:fe:a1:06:49:99:a5:aa:eb:44:5c:58:c5:07:89:
                    99:ee:13:37:9e:c0:45:b7:3c:75:5b:10:1b:b1:9b:
                    32:4e:87:51:6a:df:a6:d1:6e:ae:cb:fa:5d:97:a9:
                    74:f7:1d:61:d9:44:4a:a1:2f:9f:a0:38:f0:18:2e:
                    10:d7:c1:24:9c:fb:ae:97:91:69:65:bb:3f:eb:42:
                    3a:f6:1a:34:f7:3d:85:80:69:35:78:fe:f8:ff:e6:
                    11:6a:45:06:8b:81:92:32:51:04:ed:d5:dc:c2:70:
                    07:cc:94:0f:b9:9c:58:8a:06:e9:ed:36:0f:63:91:
                    e3:0e:ba:0f:ce:a4:f7:dc:ed:c2:ae:3b:04:6d:cf:
                    34:66:43:48:f2:83:92:60:6a:82:09:b6:1f:d7:6e:
                    75:80:3a:9d:55:5a:9f:d3:6a:bf:17:59:01:55:36:
                    50:31:ce:d2:9a:0d:a9:6a:2a:73:68:e7:b8:f6:24:
                    70:1f:eb:d0:b4:c7:72:e4:ba:54:8e:a9:f7:19:e0:
                    e6:74:de:6e:12:df:b6:3e:b1:70:07:72:d5:96:aa:
                    89:18:d1:3d:5d:16:0e:a2:88:e2:d1:32:ff:e6:57:
                    11:26:76:f5:00:75:38:b7:60:5a:7b:78:6c:b6:d9:
                    2d:18:9b:4c:b1:c4:06:2f:46:a8:42:8e:7a:44:2a:
                    ca:9f:c8:94:24:ca:b9:ad:9e:14:7b:cb:95:ed:10:
                    e8:72:07:96:b4:33:cb:e0:df:eb:bd:c2:f5:01:61:
                    36:2d:f8:ed:61:9e:33:8e:23:51:9b:1a:79:ff:b4:
                    e4:4d:32:d1:a5:71:1c:de:20:b4:7a:49:8e:08:9c:
                    6b:63:a0:26:66:21:56:f5:89:81:2b:7a:04:4b:64:
                    9e:4f:ef:45:1b:f3:b4:e6:61:98:26:b9:4f:79:ff:
                    ea:e7:31:fe:4e:f8:fe:86:69:89:96:84:e6:31:a1:
                    66:a5:96:68:48:f8:0a:c1:4f:9e:bd:87:89:2a:57:
                    8e:6c:ed:88:6f:87:60:ae:73:21:d3:5a:e4:09:ac:
                    62:5a:09:35:90:be:e8:62:5f:9d:41:f2:26:be:8e:
                    a0:42:77:f6:13:91:46:77:82:2d:ad:54:e4:1e:ca:
                    6a:23:a5:a3:14:82:99:75:de:2e:e8:ad:0c:b9:cd:
                    52:b4:fd:1d:3a:5a:f7:52:87:a6:2b:86:dc:23:40:
                    05:41:36:cf:a4:40:b1:57:9c:bb:6f:57:b4:be:4b:
                    9a:fb:8c:36:a2:bd:22:81:05:c5:b0:db:96:40:73:
                    41:e2:e1:45:da:84:b9:46:5b:85:83:79:2d:c8:a3:
                    f6:7d:5b
                Exponent: 65537 (0x10001)
        X509v3 extensions:
            X509v3 Basic Constraints: 
                CA:FALSE
            X509v3 Subject Key Identifier: 
                BE:C1:C3:42:70:9F:52:5A:50:1E:D7:14:8D:46:41:26:3C:AA:76:25
            X509v3 Authority Key Identifier: 
                DirName:/C=CZ/ST=Jihomoravsky kraj/L=Brno/O=Red Hat Czech/OU=Desktop QE/CN=RedHat
                serial:56:E3:8D:14:39:D4:A0:D5:F8:BF:EA:E9:9F:C8:DC:6F:5A:78:75:DE
    Signature Algorithm: sha256WithRSAEncryption
    Signature Value:
        6c:e3:4c:30:92:40:97:ac:41:ab:51:90:55:bc:e1:a7:72:8a:
        72:e2:ec:3c:25:00:f2:36:1f:59:e3:fb:40:0c:b6:78:42:0b:
        82:8e:d9:9f:66:49:fd:c2:d1:14:d2:6e:26:53:31:32:bb:18:
        79:ad:60:be:a2:76:8e:c4:67:ec:da:6a:7a:0d:e3:c0:89:0e:
        1d:41:db:26:c0:3f:4f:15:35:a1:51:62:8e:e6:52:ab:ea:f2:
        aa:d8:dc:07:ae:1b:dd:0e:e6:d3:c7:4c:99:8b:a4:95:20:eb:
        8d:a2:57:a9:88:d9:32:cd:67:85:5a:23:94:18:0f:ce:16:5f:
        f2:6d:d5:07:90:e8:4e:7e:4e:9f:18:73:f0:9e:57:c8:20:f5:
        10:c2:02:ac:f2:91:6c:c6:ca:61:b0:c8:35:5e:bc:46:ce:09:
        61:6f:d9:8f:09:d9:af:8b:33:b6:d1:4e:cf:03:26:50:b0:f4:
        79:f2:54:e7:4b:20:49:8a:77:0f:22:7a:d6:4d:f9:a7:cb:a4:
        74:9a:cb:d4:c9:f1:66:bc:13:8e:fa:0e:bb:e3:f1:38:37:79:
        b0:ff:74:62:9b:f0:85:1c:e0:bf:a5:91:6c:e1:2c:5d:a7:63:
        18:ec:9a:fd:6e:b3:9e:ea:53:44:e7:19:f4:b8:99:17:2b:05:
        fe:9b:b7:e8:98:66:f8:0b:d0:e1:7b:cd:e4:2b:fe:85:35:34:
        a7:ef:8a:3a:c6:be:bc:8e:a1:c8:4d:0d:b3:8f:53:6b:0f:7a:
        e0:09:fd:d7:2c:32:01:d8:d0:4d:57:71:29:eb:9f:37:7c:97:
        db:85:ad:4d:62:88:e1:5e:bd:6f:37:8a:ba:1d:2c:50:23:36:
        a4:9b:2e:70:03:85:71:a2:2b:57:63:ec:e3:69:cf:93:0f:f0:
        08:3c:f4:35:33:72:a9:88:52:c9:a6:15:82:4b:f3:3f:7a:52:
        0d:ea:6c:47:d8:3d:d4:a3:9a:ff:52:04:34:f5:65:2b:93:67:
        2e:11:34:1f:e9:f9:33:1c:bf:35:9f:79:5e:83:67:f7:b6:5e:
        2d:d7:a4:e0:a2:02:5b:f1:1e:26:41:c8:42:45:25:2f:96:01:
        f5:c6:1b:7e:e2:53:2c:41:92:18:37:f7:58:8c:e2:16:30:cb:
        c2:fa:87:59:92:5f:20:b6:64:3b:59:eb:df:54:68:0e:d4:18:
        5a:2e:bd:85:e8:0b:63:e2:80:ba:77:3b:33:9d:04:27:e1:05:
        0f:5d:bd:a2:fc:3f:04:b5:8f:84:74:67:8b:00:fe:ea:75:10:
        27:a3:fe:63:3c:83:38:50:e9:2a:47:fc:04:35:1e:0a:a8:f3:
        29:6b:a3:f4:92:ab:a3:e6
-----BEGIN CERTIFICATE-----
MIIGMDCCBBigAwIBAgIBAjANBgkqhkiG9w0BAQsFADB2MQswCQYDVQQGEwJDWjEa
MBgGA1UECAwRSmlob21vcmF2c2t5IGtyYWoxDTALBgNVBAcMBEJybm8xFjAUBgNV
BAoMDVJlZCBIYXQgQ3plY2gxEzARBgNVBAsMCkRlc2t0b3AgUUUxDzANBgNVBAMM
BlJlZEhhdDAeFw0yMjAxMjQxMjM5MDFaFw0zMjAxMjIxMjM5MDFaMHExCzAJBgNV
BAYTAkNaMRowGAYDVQQIDBFKaWhvbW9yYXZza3kga3JhajEWMBQGA1UECgwNUmVk
IEhhdCBDemVjaDETMBEGA1UECwwKRGVza3RvcCBRRTEZMBcGA1UEAwwQbGlicmVz
d2FuX2NsaWVudDCCAiIwDQYJKoZIhvcNAQEBBQADggIPADCCAgoCggIBANmjwwRr
WjVrqTUM+Ehh5v6hBkmZparrRFxYxQeJme4TN57ARbc8dVsQG7GbMk6HUWrfptFu
rsv6XZepdPcdYdlESqEvn6A48BguENfBJJz7rpeRaWW7P+tCOvYaNPc9hYBpNXj+
+P/mEWpFBouBkjJRBO3V3MJwB8yUD7mcWIoG6e02D2OR4w66D86k99ztwq47BG3P
NGZDSPKDkmBqggm2H9dudYA6nVVan9NqvxdZAVU2UDHO0poNqWoqc2jnuPYkcB/r
0LTHcuS6VI6p9xng5nTebhLftj6xcAdy1ZaqiRjRPV0WDqKI4tEy/+ZXESZ29QB1
OLdgWnt4bLbZLRibTLHEBi9GqEKOekQqyp/IlCTKua2eFHvLle0Q6HIHlrQzy+Df
673C9QFhNi347WGeM44jUZsaef+05E0y0aVxHN4gtHpJjgica2OgJmYhVvWJgSt6
BEtknk/vRRvztOZhmCa5T3n/6ucx/k74/oZpiZaE5jGhZqWWaEj4CsFPnr2HiSpX
jmztiG+HYK5zIdNa5AmsYloJNZC+6GJfnUHyJr6OoEJ39hORRneCLa1U5B7KaiOl
oxSCmXXeLuitDLnNUrT9HTpa91KHpiuG3CNABUE2z6RAsVecu29XtL5LmvuMNqK9
IoEFxbDblkBzQeLhRdqEuUZbhYN5Lcij9n1bAgMBAAGjgc0wgcowCQYDVR0TBAIw
ADAdBgNVHQ4EFgQUvsHDQnCfUlpQHtcUjUZBJjyqdiUwgZ0GA1UdIwSBlTCBkqF6
pHgwdjELMAkGA1UEBhMCQ1oxGjAYBgNVBAgMEUppaG9tb3JhdnNreSBrcmFqMQ0w
CwYDVQQHDARCcm5vMRYwFAYDVQQKDA1SZWQgSGF0IEN6ZWNoMRMwEQYDVQQLDApE
ZXNrdG9wIFFFMQ8wDQYDVQQDDAZSZWRIYXSCFFbjjRQ51KDV+L/q6Z/I3G9aeHXe
MA0GCSqGSIb3DQEBCwUAA4ICAQBs40wwkkCXrEGrUZBVvOGncopy4uw8JQDyNh9Z
4/tADLZ4QguCjtmfZkn9wtEU0m4mUzEyuxh5rWC+onaOxGfs2mp6DePAiQ4dQdsm
wD9PFTWhUWKO5lKr6vKq2NwHrhvdDubTx0yZi6SVIOuNolepiNkyzWeFWiOUGA/O
Fl/ybdUHkOhOfk6fGHPwnlfIIPUQwgKs8pFsxsphsMg1XrxGzglhb9mPCdmvizO2
0U7PAyZQsPR58lTnSyBJincPInrWTfmny6R0msvUyfFmvBOO+g674/E4N3mw/3Ri
m/CFHOC/pZFs4Sxdp2MY7Jr9brOe6lNE5xn0uJkXKwX+m7fomGb4C9Dhe83kK/6F
NTSn74o6xr68jqHITQ2zj1NrD3rgCf3XLDIB2NBNV3Ep6583fJfbha1NYojhXr1v
N4q6HSxQIzakmy5wA4VxoitXY+zjac+TD/AIPPQ1M3KpiFLJphWCS/M/elIN6mxH
2D3Uo5r/UgQ09WUrk2cuETQf6fkzHL81n3leg2f3tl4t16TgogJb8R4mQchCRSUv
lgH1xht+4lMsQZIYN/dYjOIWMMvC+odZkl8gtmQ7WevfVGgO1BhaLr2F6Atj4oC6
dzsznQQn4QUPXb2i/D8EtY+EdGeLAP7qdRAno/5jPIM4UOkqR/wENR4KqPMpa6P0
kquj5g==
-----END CERTIFICATE-----
