Certificate:
    Data:
        Version: 3 (0x2)
        Serial Number: 2 (0x2)
        Signature Algorithm: sha1WithRSAEncryption
        Issuer: C=CZ, ST=Jihomoravsky kraj, L=Brno, O=Red Hat Czech, OU=Desktop QE, CN=RedHat
        Validity
            Not Before: Jul  7 10:08:26 2020 GMT
            Not After : Jul  5 10:08:26 2030 GMT
        Subject: C=CZ, ST=Jihomoravsky kraj, O=Red Hat Czech, OU=Desktop QE, CN=libreswan_client
        Subject Public Key Info:
            Public Key Algorithm: rsaEncryption
                RSA Public-Key: (4096 bit)
                Modulus:
                    00:a0:e0:df:b9:11:98:b1:16:7d:3b:c6:33:dd:0e:
                    8a:46:59:3f:da:80:ad:91:56:f6:c7:cf:61:9d:48:
                    88:c1:fd:06:f1:11:20:92:77:b2:d1:ef:a5:73:d0:
                    15:6b:02:b8:a1:c7:d6:c4:1d:2c:fd:59:42:c3:bc:
                    70:88:63:ac:ef:8c:65:51:de:e0:77:b2:7b:35:d7:
                    3b:e1:1e:76:15:04:6d:bf:2e:5b:7d:5d:bd:f8:07:
                    37:e4:d3:26:8d:8c:1b:e3:8d:c3:a7:0e:c1:c5:38:
                    fd:9f:cd:58:0b:42:a5:b6:ef:2b:6c:43:c7:1c:cc:
                    83:f0:5c:c2:4c:a9:2e:e5:69:95:bd:6d:26:fe:3d:
                    ec:a3:c6:b7:e6:9c:e7:27:e3:32:b3:5b:7a:a3:f1:
                    ea:e1:a2:e6:24:43:e5:d4:62:d0:d4:96:38:c5:76:
                    19:39:6a:7a:4d:17:cb:ef:6d:44:f1:d7:4d:fc:93:
                    b1:e7:2e:16:ba:2c:d4:36:9c:25:90:39:56:13:3b:
                    1c:c6:28:0c:e3:bc:6f:08:8a:37:47:5d:15:8e:82:
                    aa:18:1e:1b:bd:b8:e1:64:80:e6:0a:3a:a4:74:6d:
                    b8:42:20:02:25:b4:b3:ec:d6:e4:0a:4f:7d:0a:3e:
                    d2:10:7a:39:59:ba:11:39:7b:85:c9:e6:4a:f6:c9:
                    03:88:dc:96:2a:7a:e7:cc:85:9b:05:80:8e:f5:a7:
                    4f:62:66:8a:d4:75:18:a9:8c:91:e0:14:e1:f8:ee:
                    2a:6b:4c:18:5d:32:44:69:23:1c:e0:b5:c7:81:a5:
                    9d:3f:db:ee:20:73:6f:bd:66:6d:62:4c:9f:cd:ab:
                    ba:32:04:5c:77:c9:23:7c:64:e7:1c:2e:b5:1e:f9:
                    88:75:a0:d1:78:18:2e:8f:00:f8:5c:ad:07:8b:d0:
                    df:7a:3f:4f:bb:c3:5b:0e:d2:17:e8:c9:78:93:65:
                    1a:a3:b8:56:11:9b:0b:e7:1e:3e:28:bb:fa:9b:a7:
                    a4:92:3f:55:4a:9f:f9:81:0c:97:83:7f:f1:8c:7f:
                    e6:9d:91:fc:40:8b:99:97:bb:49:2e:e3:f7:c0:00:
                    7a:0e:10:b1:24:2c:28:94:89:bc:25:c6:d4:4c:5e:
                    c0:f4:50:d7:02:a8:77:5e:4b:f9:83:f6:f6:94:89:
                    5f:39:5f:d3:54:10:55:9e:9d:5f:c0:bb:5e:13:dc:
                    0c:6d:20:b2:c6:c9:52:15:36:fd:22:75:cf:16:c7:
                    d3:f4:2c:ac:8d:84:82:9a:55:0e:2a:e5:83:de:1e:
                    03:d2:f1:3e:5a:d9:d2:2d:ef:cd:3a:15:75:18:55:
                    d1:22:53:9c:83:68:04:dd:a4:a0:7b:38:cb:14:25:
                    54:88:71
                Exponent: 65537 (0x10001)
        X509v3 extensions:
            X509v3 Basic Constraints: 
                CA:FALSE
            X509v3 Subject Key Identifier: 
                93:07:AA:7E:6D:F0:A0:93:5A:6E:CE:33:BE:C3:A0:52:F9:31:2A:5C
    Signature Algorithm: sha1WithRSAEncryption
         a4:8b:83:d4:af:f7:5e:41:0a:8d:ab:63:2a:d6:f0:40:6d:0a:
         47:bf:61:16:94:6c:28:ae:a8:b9:6a:bc:00:29:4f:d2:01:bf:
         01:86:22:86:e5:7b:a2:ea:62:61:48:7b:12:fb:e9:2b:99:86:
         e5:78:71:02:43:bf:08:63:ff:4e:7d:5d:e5:e8:65:51:e8:3a:
         1d:04:7f:db:ac:11:be:c6:12:5b:8a:a9:5f:1d:ac:f5:e9:89:
         4d:4f:0c:bf:79:fa:af:88:68:0e:cb:a6:fc:8d:87:80:eb:f6:
         4a:35:26:1c:ed:e0:54:33:dc:9a:c3:91:87:03:34:31:40:3f:
         f8:59:5a:23:bc:88:8b:3f:53:15:2e:9f:95:c3:91:c2:3b:eb:
         af:3b:45:ae:f7:f0:3d:95:41:72:73:5c:a1:fe:cf:98:5a:fe:
         84:54:c7:fc:bd:f2:b4:d4:69:6e:2b:a5:7f:6b:e0:8c:b5:8d:
         4d:6e:e9:14:7e:f7:b8:2b:45:ee:4b:ca:c1:e9:69:8a:d1:85:
         9d:40:1f:1d:9f:8f:97:a6:57:71:7d:78:cf:e9:45:38:60:8c:
         61:db:ea:be:63:36:24:e9:5a:ce:a8:ff:a6:50:0d:66:b9:20:
         88:31:a4:e2:15:af:5d:e8:ba:c7:00:f8:09:7e:2f:ad:6d:fc:
         1a:81:bd:cc:cc:a1:66:89:19:ec:ca:e9:94:d9:18:11:0c:4e:
         1d:a5:4f:dd:ec:f9:b8:63:ce:95:be:68:fd:4a:76:7d:84:aa:
         0f:e2:c3:ca:c6:7a:b0:6b:b5:ad:70:4e:d3:e8:92:89:de:09:
         57:d2:fc:15:84:41:ae:22:50:cd:36:35:0f:20:dc:10:dc:4c:
         2e:a0:35:5b:87:ee:c5:a1:e6:33:7f:70:ff:07:d0:53:d3:57:
         f8:9b:b4:85:b8:20:4b:82:30:15:04:bc:3a:de:70:8c:94:12:
         0e:f0:26:f5:0d:fa:a8:7a:a3:22:92:11:5e:e6:f2:da:82:f1:
         81:f0:e5:2c:52:af:d6:bd:b7:85:9f:c9:56:7f:e9:dd:03:5a:
         71:39:00:34:0d:01:1a:02:f4:3c:1f:18:e4:41:d7:4a:6a:6e:
         34:18:62:ac:a0:67:67:21:5a:c6:59:3c:da:62:35:d3:c4:36:
         86:84:6b:8e:4e:f4:9a:e3:a5:b7:4b:93:4e:73:12:08:b5:d4:
         91:d3:90:33:a0:c0:bb:5c:ce:92:85:a9:61:a8:5f:b8:e7:33:
         da:48:e7:7d:5a:ed:8d:bc:44:06:ca:c4:9d:b7:42:31:85:1c:
         dd:36:86:0f:a1:d6:af:5a:77:b6:c4:95:df:ac:f2:19:a4:8e:
         96:9f:62:01:22:aa:9f:67
-----BEGIN CERTIFICATE-----
MIIFjjCCA3agAwIBAgIBAjANBgkqhkiG9w0BAQUFADB2MQswCQYDVQQGEwJDWjEa
MBgGA1UECAwRSmlob21vcmF2c2t5IGtyYWoxDTALBgNVBAcMBEJybm8xFjAUBgNV
BAoMDVJlZCBIYXQgQ3plY2gxEzARBgNVBAsMCkRlc2t0b3AgUUUxDzANBgNVBAMM
BlJlZEhhdDAeFw0yMDA3MDcxMDA4MjZaFw0zMDA3MDUxMDA4MjZaMHExCzAJBgNV
BAYTAkNaMRowGAYDVQQIDBFKaWhvbW9yYXZza3kga3JhajEWMBQGA1UECgwNUmVk
IEhhdCBDemVjaDETMBEGA1UECwwKRGVza3RvcCBRRTEZMBcGA1UEAwwQbGlicmVz
d2FuX2NsaWVudDCCAiIwDQYJKoZIhvcNAQEBBQADggIPADCCAgoCggIBAKDg37kR
mLEWfTvGM90OikZZP9qArZFW9sfPYZ1IiMH9BvERIJJ3stHvpXPQFWsCuKHH1sQd
LP1ZQsO8cIhjrO+MZVHe4HeyezXXO+EedhUEbb8uW31dvfgHN+TTJo2MG+ONw6cO
wcU4/Z/NWAtCpbbvK2xDxxzMg/BcwkypLuVplb1tJv497KPGt+ac5yfjMrNbeqPx
6uGi5iRD5dRi0NSWOMV2GTlqek0Xy+9tRPHXTfyTsecuFros1DacJZA5VhM7HMYo
DOO8bwiKN0ddFY6CqhgeG7244WSA5go6pHRtuEIgAiW0s+zW5ApPfQo+0hB6OVm6
ETl7hcnmSvbJA4jclip658yFmwWAjvWnT2JmitR1GKmMkeAU4fjuKmtMGF0yRGkj
HOC1x4GlnT/b7iBzb71mbWJMn82rujIEXHfJI3xk5xwutR75iHWg0XgYLo8A+Fyt
B4vQ33o/T7vDWw7SF+jJeJNlGqO4VhGbC+cePii7+punpJI/VUqf+YEMl4N/8Yx/
5p2R/ECLmZe7SS7j98AAeg4QsSQsKJSJvCXG1ExewPRQ1wKod15L+YP29pSJXzlf
01QQVZ6dX8C7XhPcDG0gssbJUhU2/SJ1zxbH0/QsrI2EgppVDirlg94eA9LxPlrZ
0i3vzToVdRhV0SJTnINoBN2koHs4yxQlVIhxAgMBAAGjLDAqMAkGA1UdEwQCMAAw
HQYDVR0OBBYEFJMHqn5t8KCTWm7OM77DoFL5MSpcMA0GCSqGSIb3DQEBBQUAA4IC
AQCki4PUr/deQQqNq2Mq1vBAbQpHv2EWlGworqi5arwAKU/SAb8BhiKG5Xui6mJh
SHsS++krmYbleHECQ78IY/9OfV3l6GVR6DodBH/brBG+xhJbiqlfHaz16YlNTwy/
efqviGgOy6b8jYeA6/ZKNSYc7eBUM9yaw5GHAzQxQD/4WVojvIiLP1MVLp+Vw5HC
O+uvO0Wu9/A9lUFyc1yh/s+YWv6EVMf8vfK01GluK6V/a+CMtY1NbukUfve4K0Xu
S8rB6WmK0YWdQB8dn4+XpldxfXjP6UU4YIxh2+q+YzYk6VrOqP+mUA1muSCIMaTi
Fa9d6LrHAPgJfi+tbfwagb3MzKFmiRnsyumU2RgRDE4dpU/d7Pm4Y86Vvmj9SnZ9
hKoP4sPKxnqwa7WtcE7T6JKJ3glX0vwVhEGuIlDNNjUPINwQ3EwuoDVbh+7FoeYz
f3D/B9BT01f4m7SFuCBLgjAVBLw63nCMlBIO8Cb1DfqoeqMikhFe5vLagvGB8OUs
Uq/WvbeFn8lWf+ndA1pxOQA0DQEaAvQ8HxjkQddKam40GGKsoGdnIVrGWTzaYjXT
xDaGhGuOTvSa46W3S5NOcxIItdSR05AzoMC7XM6ShalhqF+45zPaSOd9Wu2NvEQG
ysSdt0IxhRzdNoYPodavWne2xJXfrPIZpI6Wn2IBIqqfZw==
-----END CERTIFICATE-----
