Certificate:
    Data:
        Version: 3 (0x2)
        Serial Number: 2 (0x2)
        Signature Algorithm: sha1WithRSAEncryption
        Issuer: C=CZ, ST=Jihomoravsky kraj, L=Brno, O=Red Hat Czech, OU=Desktop QE, CN=RedHat
        Validity
            Not Before: Jan 20 12:58:53 2022 GMT
            Not After : Jan 18 12:58:53 2032 GMT
        Subject: C=CZ, ST=Jihomoravsky kraj, O=Red Hat Czech, OU=Desktop QE, CN=libreswan_client
        Subject Public Key Info:
            Public Key Algorithm: rsaEncryption
                Public-Key: (4096 bit)
                Modulus:
                    00:9c:37:55:71:87:79:54:52:95:cb:6d:87:fc:16:
                    f7:7d:12:92:aa:62:c4:0f:65:67:fe:b2:ea:90:31:
                    9e:ac:52:db:c2:42:80:c7:5d:5b:b8:8a:4a:3b:08:
                    c9:2b:c7:48:90:53:94:98:ec:3d:3d:cd:c1:d9:f9:
                    8c:02:a8:fb:fb:8a:d7:67:f1:ed:b5:6e:a7:8f:88:
                    24:8c:5f:1d:c4:30:55:4e:c6:fd:24:64:98:6a:0b:
                    1c:62:8a:15:5b:a1:30:f8:ff:b7:49:ce:db:93:e2:
                    03:a0:b8:41:e4:e9:5a:82:4e:18:78:21:c9:16:af:
                    36:8a:d6:6e:98:ff:5f:e8:ac:42:90:27:72:02:de:
                    13:0c:8f:61:e2:4c:d0:47:de:5c:e6:25:38:48:1f:
                    9f:e3:71:6d:e9:4f:29:51:97:42:78:84:29:42:96:
                    1f:a2:f3:3c:8e:83:a9:f7:69:93:59:a3:e5:8b:d3:
                    0d:a5:e7:46:fb:38:6f:b9:7c:a3:9a:89:44:b8:98:
                    22:db:cb:8d:95:19:7b:45:a0:65:c0:6f:46:15:35:
                    3a:fa:3e:1c:71:88:47:86:fa:13:c3:18:bd:83:39:
                    f6:d3:d0:2f:fc:89:f4:7c:28:7e:47:ca:8a:ee:d1:
                    8e:55:bc:20:8f:05:66:5e:86:e3:07:47:81:d3:e9:
                    eb:4c:b7:d6:b6:3d:6b:79:09:d4:8a:74:d0:82:e7:
                    f6:f7:38:be:88:a7:cf:67:06:08:33:0d:41:6f:70:
                    02:4b:55:f5:97:18:e4:10:d5:18:bd:3c:31:d0:71:
                    b1:41:42:c4:2c:ef:80:03:9b:62:8f:69:28:b5:37:
                    a0:e6:ab:7d:44:c8:63:f2:25:40:d2:6f:ec:65:bb:
                    e7:ef:fb:3f:53:2d:74:6e:8b:e6:f4:d0:0e:2d:96:
                    6b:32:b3:c0:a2:d3:e3:a4:80:f8:69:56:a9:6f:ab:
                    ad:73:c8:75:9d:86:61:41:ce:e6:c9:56:9b:b7:4b:
                    02:14:88:84:92:6b:71:4c:a3:5a:f6:dd:96:de:c8:
                    e5:4a:99:2a:e6:40:0c:e0:24:ef:e2:94:dc:b6:3c:
                    6b:f1:07:8e:d0:a1:c7:f3:c8:4e:f3:75:43:7e:fa:
                    eb:9e:19:00:a5:3c:70:07:6b:8f:71:62:66:80:38:
                    12:c8:9f:47:d4:d5:d2:41:6c:c8:69:4a:2f:61:cd:
                    cd:0d:c2:82:18:07:2a:d0:e9:b6:84:81:09:52:e0:
                    5d:68:63:22:f9:02:be:10:5a:29:50:db:fb:a7:49:
                    ae:0f:9a:eb:6c:f9:c2:75:9a:10:97:82:0b:f6:65:
                    76:ba:31:85:34:9e:86:b3:3b:46:e4:16:0a:50:26:
                    2b:26:5f
                Exponent: 65537 (0x10001)
        X509v3 extensions:
            X509v3 Basic Constraints: 
                CA:FALSE
            X509v3 Subject Key Identifier: 
                5E:DD:66:92:D3:B2:24:56:FA:8C:2B:E7:32:B5:E6:DD:EF:7C:C3:E8
            X509v3 Authority Key Identifier: 
                DirName:/C=CZ/ST=Jihomoravsky kraj/L=Brno/O=Red Hat Czech/OU=Desktop QE/CN=RedHat
                serial:56:E3:8D:14:39:D4:A0:D5:F8:BF:EA:E9:9F:C8:DC:6F:5A:78:75:DE
    Signature Algorithm: sha1WithRSAEncryption
    Signature Value:
        85:dc:71:02:b0:26:f8:a3:64:3d:f7:f0:2a:aa:f6:96:93:68:
        9d:dc:d6:23:f5:29:8e:bc:ff:56:52:b5:35:87:a4:a8:ff:cf:
        50:a6:fc:73:eb:9a:ed:17:c2:6a:96:9b:df:67:b7:0b:1f:bc:
        6e:2f:ef:cb:61:1d:92:4d:18:4a:4e:48:45:b4:b7:37:b9:8b:
        6a:69:c8:35:62:13:98:cc:76:ef:66:3f:41:49:16:0b:46:59:
        f5:e0:fb:b4:e6:e2:b5:0a:a2:69:df:6c:42:b5:09:ab:c2:70:
        78:71:ca:29:07:a4:63:30:7e:93:5c:eb:77:67:77:fe:1d:2a:
        98:b4:fa:6a:58:a4:9e:f1:10:ef:1d:88:bb:81:70:a4:da:16:
        b7:46:85:7e:f9:cc:36:3f:4a:7a:61:c9:03:e5:bc:cd:cc:11:
        69:8e:79:f1:17:21:27:31:0c:c5:ef:8f:2e:a3:07:bd:1a:a3:
        82:b0:54:71:7c:f4:4d:7c:68:f6:a7:fd:f7:fd:08:88:96:1b:
        3a:9b:59:54:f1:ee:5f:e1:32:e0:bc:7e:0f:6e:08:61:27:5a:
        02:7a:06:56:d8:4b:00:63:1b:d6:57:a4:26:be:83:c9:bf:8e:
        21:08:a4:1c:2f:83:c3:01:2d:e1:2e:d7:f0:a0:41:a4:3e:d9:
        59:c5:a7:d9:39:10:da:6e:ad:ec:8a:3b:93:7b:37:b9:7c:7e:
        08:82:dd:2a:af:e0:a6:b5:95:2b:58:88:b3:26:75:eb:21:df:
        c9:1e:51:61:49:73:2d:9e:62:49:f7:83:9d:c5:00:22:73:d0:
        a7:3e:09:ca:3c:fc:9c:3a:16:bb:db:72:7f:60:b6:6c:9a:a6:
        8d:64:e1:db:8f:38:8c:a5:34:b5:c3:d5:0a:1d:ca:41:ba:ab:
        be:71:09:33:da:35:2e:7f:9c:79:21:bf:46:22:ea:32:7e:bc:
        f4:6d:c0:0f:5d:8d:30:b1:b5:80:db:b7:18:56:06:97:00:d8:
        89:ce:05:a3:21:ac:fd:a7:57:92:b1:62:44:8e:c9:67:d4:fb:
        a5:a7:a5:47:01:5b:c1:d2:e2:59:7b:20:6b:d9:56:f3:71:e6:
        aa:93:4d:b0:27:c1:a2:4f:b2:b9:1a:38:16:e3:26:ec:47:db:
        68:c6:88:1d:ca:43:76:46:b3:79:4e:e4:12:ef:aa:66:69:19:
        2d:d0:4f:0c:cc:0d:e8:ff:e7:0e:70:d0:d5:0d:62:e2:1e:26:
        46:2f:14:f7:ed:03:72:ad:45:35:32:e2:49:ca:0f:5a:a0:14:
        ba:08:10:f7:06:38:c2:21:a0:bd:95:f3:4a:91:72:a6:a4:84:
        5e:3f:5c:1b:90:4b:7e:58
-----BEGIN CERTIFICATE-----
MIIGMDCCBBigAwIBAgIBAjANBgkqhkiG9w0BAQUFADB2MQswCQYDVQQGEwJDWjEa
MBgGA1UECAwRSmlob21vcmF2c2t5IGtyYWoxDTALBgNVBAcMBEJybm8xFjAUBgNV
BAoMDVJlZCBIYXQgQ3plY2gxEzARBgNVBAsMCkRlc2t0b3AgUUUxDzANBgNVBAMM
BlJlZEhhdDAeFw0yMjAxMjAxMjU4NTNaFw0zMjAxMTgxMjU4NTNaMHExCzAJBgNV
BAYTAkNaMRowGAYDVQQIDBFKaWhvbW9yYXZza3kga3JhajEWMBQGA1UECgwNUmVk
IEhhdCBDemVjaDETMBEGA1UECwwKRGVza3RvcCBRRTEZMBcGA1UEAwwQbGlicmVz
d2FuX2NsaWVudDCCAiIwDQYJKoZIhvcNAQEBBQADggIPADCCAgoCggIBAJw3VXGH
eVRSlctth/wW930SkqpixA9lZ/6y6pAxnqxS28JCgMddW7iKSjsIySvHSJBTlJjs
PT3Nwdn5jAKo+/uK12fx7bVup4+IJIxfHcQwVU7G/SRkmGoLHGKKFVuhMPj/t0nO
25PiA6C4QeTpWoJOGHghyRavNorWbpj/X+isQpAncgLeEwyPYeJM0EfeXOYlOEgf
n+NxbelPKVGXQniEKUKWH6LzPI6Dqfdpk1mj5YvTDaXnRvs4b7l8o5qJRLiYItvL
jZUZe0WgZcBvRhU1Ovo+HHGIR4b6E8MYvYM59tPQL/yJ9HwofkfKiu7RjlW8II8F
Zl6G4wdHgdPp60y31rY9a3kJ1Ip00ILn9vc4voinz2cGCDMNQW9wAktV9ZcY5BDV
GL08MdBxsUFCxCzvgAObYo9pKLU3oOarfUTIY/IlQNJv7GW75+/7P1MtdG6L5vTQ
Di2WazKzwKLT46SA+GlWqW+rrXPIdZ2GYUHO5slWm7dLAhSIhJJrcUyjWvbdlt7I
5UqZKuZADOAk7+KU3LY8a/EHjtChx/PITvN1Q376654ZAKU8cAdrj3FiZoA4Esif
R9TV0kFsyGlKL2HNzQ3CghgHKtDptoSBCVLgXWhjIvkCvhBaKVDb+6dJrg+a62z5
wnWaEJeCC/ZldroxhTSehrM7RuQWClAmKyZfAgMBAAGjgc0wgcowCQYDVR0TBAIw
ADAdBgNVHQ4EFgQUXt1mktOyJFb6jCvnMrXm3e98w+gwgZ0GA1UdIwSBlTCBkqF6
pHgwdjELMAkGA1UEBhMCQ1oxGjAYBgNVBAgMEUppaG9tb3JhdnNreSBrcmFqMQ0w
CwYDVQQHDARCcm5vMRYwFAYDVQQKDA1SZWQgSGF0IEN6ZWNoMRMwEQYDVQQLDApE
ZXNrdG9wIFFFMQ8wDQYDVQQDDAZSZWRIYXSCFFbjjRQ51KDV+L/q6Z/I3G9aeHXe
MA0GCSqGSIb3DQEBBQUAA4ICAQCF3HECsCb4o2Q99/AqqvaWk2id3NYj9SmOvP9W
UrU1h6So/89Qpvxz65rtF8JqlpvfZ7cLH7xuL+/LYR2STRhKTkhFtLc3uYtqacg1
YhOYzHbvZj9BSRYLRln14Pu05uK1CqJp32xCtQmrwnB4ccopB6RjMH6TXOt3Z3f+
HSqYtPpqWKSe8RDvHYi7gXCk2ha3RoV++cw2P0p6YckD5bzNzBFpjnnxFyEnMQzF
748uowe9GqOCsFRxfPRNfGj2p/33/QiIlhs6m1lU8e5f4TLgvH4PbghhJ1oCegZW
2EsAYxvWV6QmvoPJv44hCKQcL4PDAS3hLtfwoEGkPtlZxafZORDabq3sijuTeze5
fH4Igt0qr+CmtZUrWIizJnXrId/JHlFhSXMtnmJJ94OdxQAic9CnPgnKPPycOha7
23J/YLZsmqaNZOHbjziMpTS1w9UKHcpBuqu+cQkz2jUuf5x5Ib9GIuoyfrz0bcAP
XY0wsbWA27cYVgaXANiJzgWjIaz9p1eSsWJEjsln1Pulp6VHAVvB0uJZeyBr2Vbz
ceaqk02wJ8GiT7K5GjgW4ybsR9toxogdykN2RrN5TuQS76pmaRkt0E8MzA3o/+cO
cNDVDWLiHiZGLxT37QNyrUU1MuJJyg9aoBS6CBD3BjjCIaC9lfNKkXKmpIReP1wb
kEt+WA==
-----END CERTIFICATE-----
