Certificate:
    Data:
        Version: 3 (0x2)
        Serial Number: 5 (0x5)
        Signature Algorithm: sha256WithRSAEncryption
        Issuer: C=KG, ST=NA, L=BISHKEK, O=OpenVPN-TEST/emailAddress=me@myhost.mydomain
        Validity
            Not Before: Oct 21 10:56:26 2024 GMT
            Not After : Oct 19 10:56:26 2034 GMT
        Subject: C=KG, ST=NA, O=OpenVPN-TEST, CN=Test-Client-EC/emailAddress=me@myhost.mydomain
        Subject Public Key Info:
            Public Key Algorithm: id-ecPublicKey
                Public-Key: (256 bit)
                pub:
                    04:8c:49:bc:4f:81:99:d8:ec:3e:fb:13:55:08:fa:
                    a3:9d:f3:49:52:45:ca:4a:67:a1:28:b7:5e:5f:3f:
                    4e:a3:66:36:49:d1:4c:7c:fc:27:dc:d7:bd:a4:88:
                    95:0c:9e:0d:bf:d2:7d:59:1d:f2:6e:7c:ea:20:f3:
                    9b:14:ee:8c:8e
                ASN1 OID: secp256k1
        X509v3 extensions:
            X509v3 Basic Constraints: 
                CA:FALSE
            X509v3 Subject Key Identifier: 
                C8:43:03:B7:53:F3:38:37:0C:E3:3F:38:52:1B:6E:F1:68:2F:9F:5C
            X509v3 Authority Key Identifier: 
                keyid:47:46:29:56:E2:EB:C1:5F:86:36:30:5D:97:8B:D8:1D:88:CC:D5:0A
                DirName:/C=KG/ST=NA/L=BISHKEK/O=OpenVPN-TEST/emailAddress=me@myhost.mydomain
                serial:20:A4:94:AA:CC:97:EB:DF:F3:FF:9A:A6:32:C5:3B:EB:D6:75:81:73
    Signature Algorithm: sha256WithRSAEncryption
    Signature Value:
        ab:a1:ef:88:1f:df:89:ea:3a:c3:e9:4b:95:e0:cb:97:6c:76:
        0a:d1:53:0b:d4:13:bd:2d:ba:79:ed:31:80:98:66:16:48:4f:
        be:3b:98:20:18:bb:1f:33:75:52:9a:24:61:72:ac:fa:45:24:
        a6:2a:b0:86:f7:f0:29:f2:5b:53:b0:d4:07:65:99:ec:ba:e6:
        28:a1:1a:84:e7:65:b4:66:e9:99:72:da:d0:a2:d5:0a:f1:bc:
        30:c3:77:b7:e4:a0:03:61:4e:9e:0f:30:03:8c:61:38:79:9b:
        45:dc:3f:40:da:2e:5e:90:f9:80:56:e6:25:6e:63:f1:39:98:
        6b:a7:ac:a6:54:1c:88:c5:9d:67:0f:2f:aa:f9:40:98:ec:38:
        6a:96:fc:b0:69:be:ee:c5:6e:6d:af:5b:0e:c6:58:8f:07:29:
        34:01:52:12:e9:eb:39:31:22:6e:37:06:b5:7d:e4:33:dc:3c:
        9b:d3:02:dd:87:6a:8b:e6:dc:fc:d2:c5:41:59:fc:c6:f6:64:
        f8:83:3c:fd:43:b6:62:ce:56:04:f6:23:8d:2c:9f:ef:ce:a3:
        d1:b6:a3:91:f6:7b:ed:ae:49:2c:63:67:7c:4a:9c:98:25:1f:
        cf:0c:76:a6:88:73:52:c2:08:07:c5:62:14:d6:a0:e3:ec:44:
        6d:a0:07:7a:15:26:9b:95:be:eb:3a:6d:3b:47:e1:f6:1e:e3:
        4b:40:a5:b0:9e:32:cb:29:57:32:00:01:88:af:47:e6:f9:35:
        18:6f:83:38:4c:95:3e:bb:4d:a4:6a:e2:2a:19:90:fd:c3:ef:
        e9:45:53:4e:ff:d6:a2:72:de:a1:31:ff:31:1d:f3:a6:59:51:
        4f:7d:00:c1:9a:c6:00:70:ac:bc:2d:12:5c:71:34:7f:c9:ab:
        b2:66:11:e3:80:6c:36:b4:80:f6:58:4e:ba:ec:b9:6e:53:82:
        e7:c8:90:0d:28:8c:8f:b1:54:ad:85:21:a6:1b:54:8e:2b:31:
        87:41:02:29:c0:82:dd:59:30:05:46:f4:8f:f1:fc:b6:9e:54:
        6d:2c:17:20:30:7f:cf:5d:5e:0e:4f:64:9c:a1:f4:ff:e5:79:
        49:cb:4c:be:1a:58:a7:66:da:6f:99:62:d5:ab:50:88:54:30:
        1f:6a:24:a4:7c:af:ef:77:bb:3f:45:e5:40:fb:54:9b:f7:49:
        89:c7:15:89:c0:50:09:d4:27:d7:65:9f:a0:ff:18:b6:d2:02:
        d9:ec:8d:68:9c:5a:68:28:12:0f:99:0d:50:88:94:fa:aa:7e:
        ed:0a:7e:89:12:ed:fb:15:21:43:ce:90:b3:f2:df:66:e4:33:
        be:eb:45:61:ef:cf:6f:3f
-----BEGIN CERTIFICATE-----
MIIEVDCCAjygAwIBAgIBBTANBgkqhkiG9w0BAQsFADBmMQswCQYDVQQGEwJLRzEL
MAkGA1UECAwCTkExEDAOBgNVBAcMB0JJU0hLRUsxFTATBgNVBAoMDE9wZW5WUE4t
VEVTVDEhMB8GCSqGSIb3DQEJARYSbWVAbXlob3N0Lm15ZG9tYWluMB4XDTI0MTAy
MTEwNTYyNloXDTM0MTAxOTEwNTYyNlowbTELMAkGA1UEBhMCS0cxCzAJBgNVBAgM
Ak5BMRUwEwYDVQQKDAxPcGVuVlBOLVRFU1QxFzAVBgNVBAMMDlRlc3QtQ2xpZW50
LUVDMSEwHwYJKoZIhvcNAQkBFhJtZUBteWhvc3QubXlkb21haW4wVjAQBgcqhkjO
PQIBBgUrgQQACgNCAASMSbxPgZnY7D77E1UI+qOd80lSRcpKZ6Eot15fP06jZjZJ
0Ux8/Cfc172kiJUMng2/0n1ZHfJufOog85sU7oyOo4HTMIHQMAkGA1UdEwQCMAAw
HQYDVR0OBBYEFMhDA7dT8zg3DOM/OFIbbvFoL59cMIGjBgNVHSMEgZswgZiAFEdG
KVbi68FfhjYwXZeL2B2IzNUKoWqkaDBmMQswCQYDVQQGEwJLRzELMAkGA1UECAwC
TkExEDAOBgNVBAcMB0JJU0hLRUsxFTATBgNVBAoMDE9wZW5WUE4tVEVTVDEhMB8G
CSqGSIb3DQEJARYSbWVAbXlob3N0Lm15ZG9tYWlughQgpJSqzJfr3/P/mqYyxTvr
1nWBczANBgkqhkiG9w0BAQsFAAOCAgEAq6HviB/fieo6w+lLleDLl2x2CtFTC9QT
vS26ee0xgJhmFkhPvjuYIBi7HzN1UpokYXKs+kUkpiqwhvfwKfJbU7DUB2WZ7Lrm
KKEahOdltGbpmXLa0KLVCvG8MMN3t+SgA2FOng8wA4xhOHmbRdw/QNouXpD5gFbm
JW5j8TmYa6esplQciMWdZw8vqvlAmOw4apb8sGm+7sVuba9bDsZYjwcpNAFSEunr
OTEibjcGtX3kM9w8m9MC3Ydqi+bc/NLFQVn8xvZk+IM8/UO2Ys5WBPYjjSyf786j
0bajkfZ77a5JLGNnfEqcmCUfzwx2pohzUsIIB8ViFNag4+xEbaAHehUmm5W+6zpt
O0fh9h7jS0ClsJ4yyylXMgABiK9H5vk1GG+DOEyVPrtNpGriKhmQ/cPv6UVTTv/W
onLeoTH/MR3zpllRT30AwZrGAHCsvC0SXHE0f8mrsmYR44BsNrSA9lhOuuy5blOC
58iQDSiMj7FUrYUhphtUjisxh0ECKcCC3VkwBUb0j/H8tp5UbSwXIDB/z11eDk9k
nKH0/+V5SctMvhpYp2bab5li1atQiFQwH2okpHyv73e7P0XlQPtUm/dJiccVicBQ
CdQn12WfoP8YttIC2eyNaJxaaCgSD5kNUIiU+qp+7Qp+iRLt+xUhQ86Qs/LfZuQz
vutFYe/Pbz8=
-----END CERTIFICATE-----
