Certificate:
    Data:
        Version: 3 (0x2)
        Serial Number: 3 (0x3)
        Signature Algorithm: sha256WithRSAEncryption
        Issuer: C=KG, ST=NA, L=BISHKEK, O=OpenVPN-TEST/emailAddress=me@myhost.mydomain
        Validity
            Not Before: Oct 21 10:56:26 2024 GMT
            Not After : Oct 19 10:56:26 2034 GMT
        Subject: C=KG, ST=NA, O=OpenVPN-TEST, CN=client-revoked/emailAddress=me@myhost.mydomain
        Subject Public Key Info:
            Public Key Algorithm: rsaEncryption
                Public-Key: (2048 bit)
                Modulus:
                    00:e2:01:79:b0:3a:ff:80:cd:28:95:86:2a:a4:0f:
                    d0:16:64:64:6b:3b:f7:c0:28:30:78:93:4e:12:6c:
                    8a:3c:05:16:93:fe:b0:66:b9:46:df:bc:04:9f:e1:
                    e2:9d:a7:9c:b1:13:20:98:b1:bb:cf:a4:4a:a7:9f:
                    7e:6b:40:88:38:18:09:78:7c:47:ad:e3:80:96:c8:
                    bf:d1:55:4a:56:89:b8:ad:c7:b7:a6:7b:be:6f:fc:
                    b6:3f:27:a5:31:1d:97:1b:32:84:73:f4:e9:c1:43:
                    69:ad:fc:b2:13:39:fa:c1:be:6c:6f:d6:e5:05:df:
                    20:ec:55:4f:cd:28:6e:1e:d4:9b:26:20:20:9f:09:
                    3f:a3:a4:6d:60:b8:41:f0:dc:cd:11:d3:67:a3:a1:
                    f5:45:d4:e3:7b:bc:cb:4b:72:a2:1f:09:0d:58:cc:
                    c0:63:c7:fc:45:6f:e2:6e:10:2c:19:ea:e3:57:ba:
                    e3:96:eb:85:11:00:de:20:c8:e5:64:10:73:a7:8d:
                    ab:11:65:11:75:ca:34:a7:a2:b0:5c:98:45:97:d5:
                    31:e8:c3:f8:43:3c:a8:f9:4d:39:65:1a:c1:27:3a:
                    6d:91:bf:47:0f:76:c7:d1:4d:8d:cb:db:82:54:af:
                    19:33:a5:ee:47:e9:df:86:2a:66:56:b5:f9:a1:7c:
                    f9:55
                Exponent: 65537 (0x10001)
        X509v3 extensions:
            X509v3 Basic Constraints: 
                CA:FALSE
            X509v3 Subject Key Identifier: 
                86:C9:10:F9:E2:51:64:F1:14:A8:B5:28:EE:31:D3:BF:D0:02:08:17
            X509v3 Authority Key Identifier: 
                keyid:47:46:29:56:E2:EB:C1:5F:86:36:30:5D:97:8B:D8:1D:88:CC:D5:0A
                DirName:/C=KG/ST=NA/L=BISHKEK/O=OpenVPN-TEST/emailAddress=me@myhost.mydomain
                serial:20:A4:94:AA:CC:97:EB:DF:F3:FF:9A:A6:32:C5:3B:EB:D6:75:81:73
    Signature Algorithm: sha256WithRSAEncryption
    Signature Value:
        61:51:a5:76:50:f0:8d:1b:60:c0:df:1a:16:7d:cd:af:9f:2e:
        13:cd:8c:72:ce:f6:dc:6c:5d:f2:e9:d8:81:58:29:f1:f2:7a:
        5f:3a:7e:33:99:a8:c3:3d:aa:c6:86:9d:13:1c:23:6e:d7:a7:
        1f:e0:5a:a2:d9:54:55:af:0e:80:b8:82:cc:d0:62:77:f5:05:
        94:e2:5d:f4:0c:7a:54:0f:1d:5c:28:1d:ee:e4:74:1e:12:c6:
        05:d4:38:f5:2c:90:8f:84:4b:44:6e:62:5e:f6:23:c2:e1:62:
        3a:53:f3:bb:2d:ff:77:ea:1c:51:c1:e7:fb:01:c4:c0:d1:7b:
        c3:76:2f:58:27:8e:6d:9c:3e:90:f4:03:9e:29:63:72:46:ec:
        73:c5:29:fd:4b:93:61:ae:ab:ba:ec:3a:32:50:ef:8f:4f:69:
        de:af:56:97:58:a7:3a:13:da:2f:9d:c5:62:cd:ba:81:6c:b2:
        76:de:a1:d4:1e:4e:6c:45:3e:a8:09:ff:5a:a5:74:e6:a5:e6:
        00:d9:74:5f:ce:07:57:46:63:1f:cb:65:67:ac:bf:dc:1b:5f:
        9c:36:13:87:0c:fa:32:45:2b:3e:23:80:82:6a:ed:97:dd:c6:
        1b:77:11:1b:ac:fd:79:96:f1:09:10:34:12:f2:26:18:da:95:
        76:ec:4d:f9:76:62:29:73:a6:a9:70:0c:60:b1:59:d4:a4:d5:
        3c:c5:cd:d8:d6:71:3c:fd:d0:8d:fe:c3:90:ba:38:a3:8f:8f:
        06:64:76:c6:9e:07:9b:7d:3e:e1:7e:49:75:13:ae:a4:1c:e0:
        88:a4:34:c0:6f:38:a8:64:d7:6b:2e:1a:74:c2:13:d8:79:bd:
        30:bf:c4:12:98:aa:ac:d6:2a:72:50:2b:06:f7:34:ab:47:69:
        32:fc:5a:45:88:26:f3:2a:27:d9:3c:52:d5:a3:90:d8:d1:34:
        c3:81:a6:48:b4:0c:ae:66:6a:06:ce:c3:c1:47:20:a4:23:d8:
        91:97:96:2f:5c:f8:a0:52:8f:2a:ec:47:12:44:05:df:29:b9:
        60:32:a2:ef:90:dd:ae:5d:d1:6f:2f:d0:b8:9f:d8:f9:ea:68:
        e7:49:82:0c:2a:46:b7:ed:66:e3:5f:60:41:aa:ea:f3:b8:a6:
        9b:2d:8a:86:b4:b0:2e:a3:96:61:52:0f:b4:df:b6:6e:13:e3:
        91:fe:43:28:29:fb:cb:ca:26:9f:fe:78:ad:f2:6d:d3:2d:31:
        05:fd:1b:07:32:2d:47:b7:49:6b:f0:08:e5:17:97:0b:29:34:
        27:8d:fa:1e:45:cb:e5:9b:55:c1:95:f6:6d:07:1d:cb:41:5d:
        80:c1:c5:a8:56:20:d8:d8
-----BEGIN CERTIFICATE-----
MIIFIjCCAwqgAwIBAgIBAzANBgkqhkiG9w0BAQsFADBmMQswCQYDVQQGEwJLRzEL
MAkGA1UECAwCTkExEDAOBgNVBAcMB0JJU0hLRUsxFTATBgNVBAoMDE9wZW5WUE4t
VEVTVDEhMB8GCSqGSIb3DQEJARYSbWVAbXlob3N0Lm15ZG9tYWluMB4XDTI0MTAy
MTEwNTYyNloXDTM0MTAxOTEwNTYyNlowbTELMAkGA1UEBhMCS0cxCzAJBgNVBAgM
Ak5BMRUwEwYDVQQKDAxPcGVuVlBOLVRFU1QxFzAVBgNVBAMMDmNsaWVudC1yZXZv
a2VkMSEwHwYJKoZIhvcNAQkBFhJtZUBteWhvc3QubXlkb21haW4wggEiMA0GCSqG
SIb3DQEBAQUAA4IBDwAwggEKAoIBAQDiAXmwOv+AzSiVhiqkD9AWZGRrO/fAKDB4
k04SbIo8BRaT/rBmuUbfvASf4eKdp5yxEyCYsbvPpEqnn35rQIg4GAl4fEet44CW
yL/RVUpWibitx7eme75v/LY/J6UxHZcbMoRz9OnBQ2mt/LITOfrBvmxv1uUF3yDs
VU/NKG4e1JsmICCfCT+jpG1guEHw3M0R02ejofVF1ON7vMtLcqIfCQ1YzMBjx/xF
b+JuECwZ6uNXuuOW64URAN4gyOVkEHOnjasRZRF1yjSnorBcmEWX1THow/hDPKj5
TTllGsEnOm2Rv0cPdsfRTY3L24JUrxkzpe5H6d+GKmZWtfmhfPlVAgMBAAGjgdMw
gdAwCQYDVR0TBAIwADAdBgNVHQ4EFgQUhskQ+eJRZPEUqLUo7jHTv9ACCBcwgaMG
A1UdIwSBmzCBmIAUR0YpVuLrwV+GNjBdl4vYHYjM1QqhaqRoMGYxCzAJBgNVBAYT
AktHMQswCQYDVQQIDAJOQTEQMA4GA1UEBwwHQklTSEtFSzEVMBMGA1UECgwMT3Bl
blZQTi1URVNUMSEwHwYJKoZIhvcNAQkBFhJtZUBteWhvc3QubXlkb21haW6CFCCk
lKrMl+vf8/+apjLFO+vWdYFzMA0GCSqGSIb3DQEBCwUAA4ICAQBhUaV2UPCNG2DA
3xoWfc2vny4TzYxyzvbcbF3y6diBWCnx8npfOn4zmajDParGhp0THCNu16cf4Fqi
2VRVrw6AuILM0GJ39QWU4l30DHpUDx1cKB3u5HQeEsYF1Dj1LJCPhEtEbmJe9iPC
4WI6U/O7Lf936hxRwef7AcTA0XvDdi9YJ45tnD6Q9AOeKWNyRuxzxSn9S5Nhrqu6
7DoyUO+PT2ner1aXWKc6E9ovncVizbqBbLJ23qHUHk5sRT6oCf9apXTmpeYA2XRf
zgdXRmMfy2VnrL/cG1+cNhOHDPoyRSs+I4CCau2X3cYbdxEbrP15lvEJEDQS8iYY
2pV27E35dmIpc6apcAxgsVnUpNU8xc3Y1nE8/dCN/sOQujijj48GZHbGngebfT7h
fkl1E66kHOCIpDTAbzioZNdrLhp0whPYeb0wv8QSmKqs1ipyUCsG9zSrR2ky/FpF
iCbzKifZPFLVo5DY0TTDgaZItAyuZmoGzsPBRyCkI9iRl5YvXPigUo8q7EcSRAXf
KblgMqLvkN2uXdFvL9C4n9j56mjnSYIMKka37WbjX2BBqurzuKabLYqGtLAuo5Zh
Ug+037ZuE+OR/kMoKfvLyiaf/nit8m3TLTEF/RsHMi1Ht0lr8AjlF5cLKTQnjfoe
Rcvlm1XBlfZtBx3LQV2AwcWoViDY2A==
-----END CERTIFICATE-----
