Certificate:
    Data:
        Version: 3 (0x2)
        Serial Number: 2 (0x2)
        Signature Algorithm: sha256WithRSAEncryption
        Issuer: C=KG, ST=NA, L=BISHKEK, O=OpenVPN-TEST/emailAddress=me@myhost.mydomain
        Validity
            Not Before: Oct 21 10:56:26 2024 GMT
            Not After : Oct 19 10:56:26 2034 GMT
        Subject: C=KG, ST=NA, O=OpenVPN-TEST, CN=Test-Client/emailAddress=me@myhost.mydomain
        Subject Public Key Info:
            Public Key Algorithm: rsaEncryption
                Public-Key: (2048 bit)
                Modulus:
                    00:b3:d9:e8:29:88:55:9a:6e:88:d0:9b:91:2a:de:
                    cb:2e:06:ae:43:d3:3e:d0:f0:05:e1:c7:1d:9a:7c:
                    5d:a2:1b:fc:09:32:d5:d1:07:bf:82:7c:84:fa:bc:
                    c0:00:3c:a1:ce:f5:53:f6:8b:bf:56:77:f5:0a:1f:
                    1a:ca:3e:bb:d4:9b:7f:60:3f:c7:c9:89:b9:70:a5:
                    39:b7:d5:5f:ef:36:b8:90:b6:27:5c:d3:19:7f:a4:
                    78:e0:1c:f4:59:34:29:21:c2:64:e1:73:38:1a:3b:
                    3b:04:af:c2:44:d4:d2:1e:f7:4d:42:6e:77:83:95:
                    2c:29:51:1d:70:72:3b:1c:4f:7b:ed:6b:3b:e2:bb:
                    dd:3b:b4:b5:ea:b6:17:dc:9e:5f:7a:61:e9:fb:1e:
                    e1:2b:7a:6d:9f:b3:2d:c0:0b:69:60:0d:b5:14:e4:
                    46:5c:ae:0c:6c:d9:4b:a8:77:d7:86:41:98:42:ee:
                    d6:f3:d2:99:83:65:2c:19:b8:46:30:ca:02:90:d2:
                    0e:7b:25:4b:1e:92:52:7c:12:31:06:d4:fd:dc:1e:
                    cd:e1:1b:3f:50:77:25:49:d1:aa:35:ce:3a:c6:74:
                    32:a5:5d:ba:e6:d4:d9:57:e2:b1:80:aa:dd:5d:39:
                    b8:26:41:a0:12:bb:b4:61:0b:7d:30:22:29:25:21:
                    8e:c9
                Exponent: 65537 (0x10001)
        X509v3 extensions:
            X509v3 Basic Constraints: 
                CA:FALSE
            X509v3 Subject Key Identifier: 
                BB:CB:9D:72:33:C0:EF:10:0B:FD:28:43:61:85:52:92:B9:10:B6:00
            X509v3 Authority Key Identifier: 
                keyid:47:46:29:56:E2:EB:C1:5F:86:36:30:5D:97:8B:D8:1D:88:CC:D5:0A
                DirName:/C=KG/ST=NA/L=BISHKEK/O=OpenVPN-TEST/emailAddress=me@myhost.mydomain
                serial:20:A4:94:AA:CC:97:EB:DF:F3:FF:9A:A6:32:C5:3B:EB:D6:75:81:73
    Signature Algorithm: sha256WithRSAEncryption
    Signature Value:
        99:4f:76:5b:6a:81:ea:60:40:2f:5e:07:d6:e2:45:f8:45:b3:
        6d:b7:53:3e:18:77:af:bf:d1:d8:fa:ca:c1:b7:18:86:70:f4:
        60:64:a9:7d:a5:99:37:9d:83:f9:8d:0b:a0:d4:8e:42:a5:bc:
        58:ba:f4:3a:53:99:97:04:78:8e:6e:ef:37:ca:81:a9:df:4f:
        d5:0b:2a:78:15:13:c8:e3:56:e7:4c:f1:d4:83:23:30:bb:2a:
        eb:ea:61:63:8a:ef:8d:31:3a:99:86:46:28:55:e7:22:a8:e8:
        cf:5e:78:d9:44:8d:37:42:3a:08:6b:0d:5d:21:ce:a9:d3:c9:
        59:fc:5f:52:79:3b:a6:0e:cd:a1:1b:2e:10:2e:bf:c5:8d:33:
        45:96:8b:00:67:49:ca:82:0a:b4:7f:ac:06:d3:f6:3a:ef:04:
        d3:24:26:30:1e:3f:58:46:ff:2f:08:58:5d:4a:93:89:fe:6e:
        9e:da:1d:61:24:12:54:5a:d6:e8:25:4e:65:d9:01:0d:72:b9:
        88:ee:31:26:7d:60:d6:43:00:4e:83:01:0e:07:cf:94:be:fc:
        3f:92:db:d4:20:b0:b8:d0:7e:34:25:6a:c4:93:d7:1e:4a:9b:
        f4:57:c5:ce:8d:06:c8:a6:73:90:28:79:de:f4:80:72:d5:61:
        d9:b5:bf:16:52:75:06:7f:49:fa:7f:28:35:e3:71:2e:79:a0:
        0c:9e:95:aa:21:05:7a:61:93:fb:bf:a4:64:a7:1c:8a:a6:55:
        3a:ec:f8:35:6b:b3:fd:54:c6:2f:3c:b0:b1:4d:40:9b:08:f5:
        db:69:d3:af:bf:60:dd:14:68:13:19:62:f0:0f:f0:73:a9:f6:
        ea:a8:ac:e1:f8:19:1c:f7:03:c3:e1:45:15:47:52:62:37:87:
        54:d4:ce:74:05:7b:99:78:33:05:fa:6f:e8:7a:1a:a5:99:39:
        c2:74:24:01:76:0b:5c:10:54:aa:5b:a1:84:5b:97:22:02:d2:
        5c:cd:67:6a:d1:40:c9:54:74:2c:07:0d:99:a2:ca:6e:18:94:
        b2:76:2e:31:ef:af:3d:e4:c7:4e:36:8a:18:24:59:a3:ad:59:
        77:1e:a9:a7:43:20:44:6c:20:07:12:66:11:57:67:7f:8a:ff:
        8a:73:b0:12:0d:ff:7a:a8:a1:df:c2:fa:88:85:94:c7:db:c2:
        38:be:84:1c:dc:95:09:a8:d9:65:74:4e:69:7a:02:32:38:ec:
        be:72:71:82:e2:02:30:55:40:9f:fd:8e:2c:0d:82:ac:85:4a:
        a3:9c:8a:0d:7b:ae:5e:a9:df:d8:75:59:00:a6:f6:85:b3:45:
        5f:16:2d:55:66:c7:51:8b
-----BEGIN CERTIFICATE-----
MIIFHzCCAwegAwIBAgIBAjANBgkqhkiG9w0BAQsFADBmMQswCQYDVQQGEwJLRzEL
MAkGA1UECAwCTkExEDAOBgNVBAcMB0JJU0hLRUsxFTATBgNVBAoMDE9wZW5WUE4t
VEVTVDEhMB8GCSqGSIb3DQEJARYSbWVAbXlob3N0Lm15ZG9tYWluMB4XDTI0MTAy
MTEwNTYyNloXDTM0MTAxOTEwNTYyNlowajELMAkGA1UEBhMCS0cxCzAJBgNVBAgM
Ak5BMRUwEwYDVQQKDAxPcGVuVlBOLVRFU1QxFDASBgNVBAMMC1Rlc3QtQ2xpZW50
MSEwHwYJKoZIhvcNAQkBFhJtZUBteWhvc3QubXlkb21haW4wggEiMA0GCSqGSIb3
DQEBAQUAA4IBDwAwggEKAoIBAQCz2egpiFWabojQm5Eq3ssuBq5D0z7Q8AXhxx2a
fF2iG/wJMtXRB7+CfIT6vMAAPKHO9VP2i79Wd/UKHxrKPrvUm39gP8fJiblwpTm3
1V/vNriQtidc0xl/pHjgHPRZNCkhwmThczgaOzsEr8JE1NIe901CbneDlSwpUR1w
cjscT3vtazviu907tLXqthfcnl96Yen7HuErem2fsy3AC2lgDbUU5EZcrgxs2Uuo
d9eGQZhC7tbz0pmDZSwZuEYwygKQ0g57JUseklJ8EjEG1P3cHs3hGz9QdyVJ0ao1
zjrGdDKlXbrm1NlX4rGAqt1dObgmQaASu7RhC30wIiklIY7JAgMBAAGjgdMwgdAw
CQYDVR0TBAIwADAdBgNVHQ4EFgQUu8udcjPA7xAL/ShDYYVSkrkQtgAwgaMGA1Ud
IwSBmzCBmIAUR0YpVuLrwV+GNjBdl4vYHYjM1QqhaqRoMGYxCzAJBgNVBAYTAktH
MQswCQYDVQQIDAJOQTEQMA4GA1UEBwwHQklTSEtFSzEVMBMGA1UECgwMT3BlblZQ
Ti1URVNUMSEwHwYJKoZIhvcNAQkBFhJtZUBteWhvc3QubXlkb21haW6CFCCklKrM
l+vf8/+apjLFO+vWdYFzMA0GCSqGSIb3DQEBCwUAA4ICAQCZT3ZbaoHqYEAvXgfW
4kX4RbNtt1M+GHevv9HY+srBtxiGcPRgZKl9pZk3nYP5jQug1I5CpbxYuvQ6U5mX
BHiObu83yoGp30/VCyp4FRPI41bnTPHUgyMwuyrr6mFjiu+NMTqZhkYoVeciqOjP
XnjZRI03QjoIaw1dIc6p08lZ/F9SeTumDs2hGy4QLr/FjTNFlosAZ0nKggq0f6wG
0/Y67wTTJCYwHj9YRv8vCFhdSpOJ/m6e2h1hJBJUWtboJU5l2QENcrmI7jEmfWDW
QwBOgwEOB8+Uvvw/ktvUILC40H40JWrEk9ceSpv0V8XOjQbIpnOQKHne9IBy1WHZ
tb8WUnUGf0n6fyg143EueaAMnpWqIQV6YZP7v6RkpxyKplU67Pg1a7P9VMYvPLCx
TUCbCPXbadOvv2DdFGgTGWLwD/BzqfbqqKzh+Bkc9wPD4UUVR1JiN4dU1M50BXuZ
eDMF+m/oehqlmTnCdCQBdgtcEFSqW6GEW5ciAtJczWdq0UDJVHQsBw2ZospuGJSy
di4x76895MdONooYJFmjrVl3HqmnQyBEbCAHEmYRV2d/iv+Kc7ASDf96qKHfwvqI
hZTH28I4voQc3JUJqNlldE5pegIyOOy+cnGC4gIwVUCf/Y4sDYKshUqjnIoNe65e
qd/YdVkApvaFs0VfFi1VZsdRiw==
-----END CERTIFICATE-----
