Certificate:
    Data:
        Version: 3 (0x2)
        Serial Number: 4 (0x4)
        Signature Algorithm: sha256WithRSAEncryption
        Issuer: C=KG, ST=NA, L=BISHKEK, O=OpenVPN-TEST/emailAddress=me@myhost.mydomain
        Validity
            Not Before: Oct 21 10:56:26 2024 GMT
            Not After : Oct 19 10:56:26 2034 GMT
        Subject: C=KG, ST=NA, O=OpenVPN-TEST, CN=Test-Server-EC/emailAddress=me@myhost.mydomain
        Subject Public Key Info:
            Public Key Algorithm: id-ecPublicKey
                Public-Key: (256 bit)
                pub:
                    04:37:3f:30:23:02:8a:17:00:c8:2f:27:b5:a2:0d:
                    b4:ce:5f:53:e6:ea:4e:6d:68:4a:cb:ab:84:4f:bb:
                    1e:f9:a2:8e:41:b5:da:25:3d:e4:9e:b3:90:ad:56:
                    b0:c4:29:24:a8:17:2b:9e:7b:00:a0:a6:38:0c:3a:
                    95:08:ff:9f:a4
                ASN1 OID: secp256k1
        X509v3 extensions:
            X509v3 Basic Constraints: 
                CA:FALSE
            Netscape Cert Type: 
                SSL Server
            Netscape Comment: 
                OpenSSL Generated Server Certificate
            X509v3 Subject Key Identifier: 
                0C:58:6F:70:EF:91:43:FF:3A:E6:D9:05:FE:A3:9D:08:CF:7D:C1:A7
            X509v3 Authority Key Identifier: 
                keyid:47:46:29:56:E2:EB:C1:5F:86:36:30:5D:97:8B:D8:1D:88:CC:D5:0A
                DirName:/C=KG/ST=NA/L=BISHKEK/O=OpenVPN-TEST/emailAddress=me@myhost.mydomain
                serial:20:A4:94:AA:CC:97:EB:DF:F3:FF:9A:A6:32:C5:3B:EB:D6:75:81:73
            X509v3 Extended Key Usage: 
                TLS Web Server Authentication
            X509v3 Key Usage: 
                Digital Signature, Key Encipherment
    Signature Algorithm: sha256WithRSAEncryption
    Signature Value:
        b8:4a:e4:0f:dc:00:72:e8:9e:4f:a6:c8:40:48:b6:34:74:a2:
        a7:43:91:3f:fd:1a:12:54:ca:58:68:ef:59:69:1d:bb:9a:78:
        af:66:02:05:7c:77:49:94:05:55:43:d9:13:54:b6:62:cc:d7:
        ef:cd:e3:56:af:52:b9:d1:64:26:23:a8:7d:55:82:10:08:56:
        9d:cf:3b:f0:82:ee:8e:f8:5c:4c:99:07:f8:4e:a3:c5:77:ad:
        e5:1a:74:45:d5:3e:83:3f:8f:b7:d6:f6:df:8f:7d:64:24:e0:
        4a:76:68:91:20:89:8a:e2:f1:cf:cc:29:7d:87:2a:27:ec:00:
        84:c1:4e:38:cd:4a:a8:e6:0d:3a:82:45:db:93:cf:c0:c9:21:
        76:bd:87:51:f2:75:58:60:15:3b:7b:2b:c3:eb:28:89:fd:c4:
        42:12:bf:20:f9:e4:1e:b6:e8:e6:8d:97:df:00:f8:49:66:46:
        79:92:35:39:2a:4c:30:c9:be:51:7a:29:3d:e3:1b:19:f9:b7:
        32:ff:a4:60:b9:8e:04:66:27:71:e6:68:e0:9f:cf:49:d3:32:
        56:37:d6:0b:0a:1c:c3:8a:d8:d4:ec:5f:57:d0:6c:2e:df:23:
        f1:38:47:3a:b6:5d:6e:9a:aa:70:e5:50:c0:33:93:b9:35:cf:
        fc:d4:30:ce:a5:0a:bf:f4:c0:07:d3:a9:6d:31:18:0e:e6:de:
        f0:8b:b9:9b:32:76:36:a2:73:1f:92:46:6e:29:3c:cf:3f:14:
        0c:7b:80:0e:19:0b:08:2e:98:b0:80:10:b9:75:67:03:f2:41:
        2e:39:08:2a:89:1a:c8:39:6f:58:ce:6d:19:e8:4a:27:34:f3:
        bf:59:88:cf:f6:ef:22:f0:6d:6c:80:c7:05:6d:26:6f:33:89:
        b2:a9:95:d1:fe:a1:7f:a9:09:5c:91:ce:f7:6c:ac:d4:c8:61:
        3b:cb:4b:ab:26:45:f0:37:86:db:f6:d3:f3:36:e6:14:90:b9:
        b8:ad:d8:0a:88:df:3b:7e:54:59:9a:7b:80:51:24:93:07:12:
        4f:dd:52:c4:4b:c0:26:36:84:12:6b:ff:95:b0:fe:b5:e6:06:
        26:de:ed:89:2d:05:ff:c7:5c:dd:44:5c:50:2d:7f:25:5f:c9:
        ed:51:52:d4:21:ef:08:a3:03:2e:1e:a2:ed:21:8c:12:a8:8b:
        19:0d:12:0e:a3:35:7f:08:34:07:92:56:2a:e8:be:20:24:58:
        04:e0:38:8b:be:df:0b:18:05:67:ba:02:41:f7:50:23:ae:29:
        af:11:3e:73:bf:6f:78:e0:c8:c1:68:61:83:10:97:26:63:1c:
        02:c1:d4:d6:58:07:4f:46
-----BEGIN CERTIFICATE-----
MIIEwDCCAqigAwIBAgIBBDANBgkqhkiG9w0BAQsFADBmMQswCQYDVQQGEwJLRzEL
MAkGA1UECAwCTkExEDAOBgNVBAcMB0JJU0hLRUsxFTATBgNVBAoMDE9wZW5WUE4t
VEVTVDEhMB8GCSqGSIb3DQEJARYSbWVAbXlob3N0Lm15ZG9tYWluMB4XDTI0MTAy
MTEwNTYyNloXDTM0MTAxOTEwNTYyNlowbTELMAkGA1UEBhMCS0cxCzAJBgNVBAgM
Ak5BMRUwEwYDVQQKDAxPcGVuVlBOLVRFU1QxFzAVBgNVBAMMDlRlc3QtU2VydmVy
LUVDMSEwHwYJKoZIhvcNAQkBFhJtZUBteWhvc3QubXlkb21haW4wVjAQBgcqhkjO
PQIBBgUrgQQACgNCAAQ3PzAjAooXAMgvJ7WiDbTOX1Pm6k5taErLq4RPux75oo5B
tdolPeSes5CtVrDEKSSoFyueewCgpjgMOpUI/5+ko4IBPjCCATowCQYDVR0TBAIw
ADARBglghkgBhvhCAQEEBAMCBkAwMwYJYIZIAYb4QgENBCYWJE9wZW5TU0wgR2Vu
ZXJhdGVkIFNlcnZlciBDZXJ0aWZpY2F0ZTAdBgNVHQ4EFgQUDFhvcO+RQ/865tkF
/qOdCM99wacwgaMGA1UdIwSBmzCBmIAUR0YpVuLrwV+GNjBdl4vYHYjM1QqhaqRo
MGYxCzAJBgNVBAYTAktHMQswCQYDVQQIDAJOQTEQMA4GA1UEBwwHQklTSEtFSzEV
MBMGA1UECgwMT3BlblZQTi1URVNUMSEwHwYJKoZIhvcNAQkBFhJtZUBteWhvc3Qu
bXlkb21haW6CFCCklKrMl+vf8/+apjLFO+vWdYFzMBMGA1UdJQQMMAoGCCsGAQUF
BwMBMAsGA1UdDwQEAwIFoDANBgkqhkiG9w0BAQsFAAOCAgEAuErkD9wAcuieT6bI
QEi2NHSip0ORP/0aElTKWGjvWWkdu5p4r2YCBXx3SZQFVUPZE1S2YszX783jVq9S
udFkJiOofVWCEAhWnc878ILujvhcTJkH+E6jxXet5Rp0RdU+gz+Pt9b23499ZCTg
SnZokSCJiuLxz8wpfYcqJ+wAhMFOOM1KqOYNOoJF25PPwMkhdr2HUfJ1WGAVO3sr
w+soif3EQhK/IPnkHrbo5o2X3wD4SWZGeZI1OSpMMMm+UXopPeMbGfm3Mv+kYLmO
BGYnceZo4J/PSdMyVjfWCwocw4rY1OxfV9BsLt8j8ThHOrZdbpqqcOVQwDOTuTXP
/NQwzqUKv/TAB9OpbTEYDube8Iu5mzJ2NqJzH5JGbik8zz8UDHuADhkLCC6YsIAQ
uXVnA/JBLjkIKokayDlvWM5tGehKJzTzv1mIz/bvIvBtbIDHBW0mbzOJsqmV0f6h
f6kJXJHO92ys1MhhO8tLqyZF8DeG2/bT8zbmFJC5uK3YCojfO35UWZp7gFEkkwcS
T91SxEvAJjaEEmv/lbD+teYGJt7tiS0F/8dc3URcUC1/JV/J7VFS1CHvCKMDLh6i
7SGMEqiLGQ0SDqM1fwg0B5JWKui+ICRYBOA4i77fCxgFZ7oCQfdQI64prxE+c79v
eODIwWhhgxCXJmMcAsHU1lgHT0Y=
-----END CERTIFICATE-----
