Certificate:
    Data:
        Version: 3 (0x2)
        Serial Number: 1 (0x1)
        Signature Algorithm: sha256WithRSAEncryption
        Issuer: C=KG, ST=NA, L=BISHKEK, O=OpenVPN-TEST/emailAddress=me@myhost.mydomain
        Validity
            Not Before: Oct 21 10:56:26 2024 GMT
            Not After : Oct 19 10:56:26 2034 GMT
        Subject: C=KG, ST=NA, O=OpenVPN-TEST, CN=Test-Server/emailAddress=me@myhost.mydomain
        Subject Public Key Info:
            Public Key Algorithm: rsaEncryption
                Public-Key: (2048 bit)
                Modulus:
                    00:b6:0c:a8:e0:ad:6a:e5:63:a7:96:4c:dc:f7:dc:
                    7a:f5:03:0d:4f:3d:a5:72:d7:d3:af:22:3c:1c:84:
                    f6:a3:34:ca:bd:24:79:3e:d3:30:df:5f:7e:fe:71:
                    81:52:a2:65:e7:6c:d7:50:d2:b5:b3:e0:df:02:c2:
                    6e:01:03:53:2e:5d:64:9f:3d:37:86:38:8b:af:a3:
                    8b:0f:6a:2e:10:86:2e:fd:47:c6:37:59:8f:8c:cf:
                    18:89:7b:2d:bd:e9:a8:06:a9:cd:4a:0a:6d:2e:69:
                    50:ff:29:ac:be:16:d4:79:b4:e8:90:4f:43:05:aa:
                    f2:98:ca:8f:bb:00:24:aa:de:fa:3d:df:1b:96:0f:
                    e3:83:0a:6c:dd:fa:fd:ed:40:10:37:f4:20:51:a2:
                    e8:ba:2b:13:9b:61:ef:0a:8d:ed:15:40:fe:91:71:
                    66:42:67:7b:37:c3:8a:9e:2d:66:59:c0:5e:e5:19:
                    0f:2f:88:7f:77:e4:ed:b0:45:06:1c:65:1b:a7:b3:
                    66:94:b5:bb:0a:86:c6:ea:b8:88:43:b5:68:9b:a3:
                    dc:c9:92:8e:41:cd:cb:a5:98:a0:27:9a:55:c0:7b:
                    ce:ad:3b:84:48:91:d8:79:82:79:30:54:a4:e2:cf:
                    81:e2:5e:e6:91:70:17:4a:ca:cf:d6:67:3c:cc:bd:
                    47:a7
                Exponent: 65537 (0x10001)
        X509v3 extensions:
            X509v3 Basic Constraints: 
                CA:FALSE
            Netscape Cert Type: 
                SSL Server
            Netscape Comment: 
                OpenSSL Generated Server Certificate
            X509v3 Subject Key Identifier: 
                25:81:4C:B8:01:CD:C7:93:2C:86:5F:F2:D0:50:3E:70:F1:1A:A6:88
            X509v3 Authority Key Identifier: 
                keyid:47:46:29:56:E2:EB:C1:5F:86:36:30:5D:97:8B:D8:1D:88:CC:D5:0A
                DirName:/C=KG/ST=NA/L=BISHKEK/O=OpenVPN-TEST/emailAddress=me@myhost.mydomain
                serial:20:A4:94:AA:CC:97:EB:DF:F3:FF:9A:A6:32:C5:3B:EB:D6:75:81:73
            X509v3 Extended Key Usage: 
                TLS Web Server Authentication
            X509v3 Key Usage: 
                Digital Signature, Key Encipherment
    Signature Algorithm: sha256WithRSAEncryption
    Signature Value:
        68:99:f9:6c:e4:9f:d6:76:2b:4e:6c:0c:00:80:d0:e4:3d:71:
        90:35:e5:d9:f2:9e:42:bf:9d:fd:a1:e6:56:7b:e5:4b:9d:5f:
        6d:f8:86:70:b3:9b:45:b7:4e:41:34:92:8b:f6:ed:67:a9:86:
        65:8a:da:b2:e6:5f:3a:da:7d:ad:8c:76:a2:74:a2:34:40:ff:
        3d:dd:73:a2:de:61:a3:58:b0:94:4c:c1:34:53:f3:35:f0:76:
        13:c7:42:30:85:94:a6:16:ef:81:31:de:98:5a:81:ac:de:58:
        83:67:84:46:51:50:3d:0e:80:34:91:a9:8a:8a:ac:f6:f2:61:
        cf:5c:b4:07:c7:ea:fa:bf:22:da:7a:77:5f:3b:b1:80:c4:c8:
        35:27:8b:1d:82:d3:60:8e:5a:50:89:7d:70:a8:df:29:b0:bf:
        27:87:d7:c3:45:0b:27:21:6a:23:d1:a0:90:95:26:fe:f1:13:
        2a:8e:b3:84:b2:61:f2:ca:69:11:e7:c8:10:5e:dc:1c:1a:d0:
        ed:40:fa:1a:96:df:f5:75:e6:05:e2:3e:95:6e:27:4d:fc:5e:
        ee:b0:ab:2a:40:84:b3:2f:07:73:7d:8a:86:bd:4c:10:9e:16:
        62:c1:22:b7:16:da:29:14:9a:05:94:b1:18:36:51:eb:b4:47:
        88:d9:e0:2f:3f:dd:6c:13:f7:a8:31:68:f0:43:07:15:dd:12:
        c4:7d:a5:11:c3:ea:77:d7:ca:6b:9c:af:21:9c:0f:78:ac:50:
        e9:21:e6:31:78:e3:df:4c:21:18:74:ad:63:00:59:19:82:e6:
        27:25:6c:c7:1f:41:54:ff:a9:54:ed:46:3d:31:35:ee:d2:96:
        a5:f2:1f:a1:1a:31:0c:4a:f1:5e:ac:92:8c:35:0f:66:7e:da:
        02:98:fa:cb:7c:45:e8:8a:5d:3d:43:e5:d1:e1:a7:3e:6e:04:
        57:ed:96:32:f4:94:a1:e0:48:67:fd:7a:e4:f5:91:0d:b6:5c:
        07:f6:ae:c9:98:38:53:a6:1d:4e:e5:d9:4a:c3:ff:6d:9f:1e:
        2e:8d:02:53:e3:54:ee:cf:fe:e6:af:77:b6:42:73:7a:7a:77:
        78:5d:11:a6:03:69:7c:81:6a:d8:9b:0d:f8:d4:10:31:76:bd:
        8a:ab:47:c2:78:ce:9e:93:ba:49:40:f9:76:a6:91:ce:69:32:
        fd:65:8c:4a:6f:fa:ab:89:ef:31:58:46:33:cc:a7:31:d1:95:
        6c:78:c1:5a:57:77:cd:43:06:59:91:5d:bf:1c:4b:5c:62:12:
        fa:88:11:9a:56:85:9b:76:8e:c6:46:f6:27:fc:f6:f6:33:63:
        67:d9:5f:93:ab:69:0c:52
-----BEGIN CERTIFICATE-----
MIIFizCCA3OgAwIBAgIBATANBgkqhkiG9w0BAQsFADBmMQswCQYDVQQGEwJLRzEL
MAkGA1UECAwCTkExEDAOBgNVBAcMB0JJU0hLRUsxFTATBgNVBAoMDE9wZW5WUE4t
VEVTVDEhMB8GCSqGSIb3DQEJARYSbWVAbXlob3N0Lm15ZG9tYWluMB4XDTI0MTAy
MTEwNTYyNloXDTM0MTAxOTEwNTYyNlowajELMAkGA1UEBhMCS0cxCzAJBgNVBAgM
Ak5BMRUwEwYDVQQKDAxPcGVuVlBOLVRFU1QxFDASBgNVBAMMC1Rlc3QtU2VydmVy
MSEwHwYJKoZIhvcNAQkBFhJtZUBteWhvc3QubXlkb21haW4wggEiMA0GCSqGSIb3
DQEBAQUAA4IBDwAwggEKAoIBAQC2DKjgrWrlY6eWTNz33Hr1Aw1PPaVy19OvIjwc
hPajNMq9JHk+0zDfX37+cYFSomXnbNdQ0rWz4N8Cwm4BA1MuXWSfPTeGOIuvo4sP
ai4Qhi79R8Y3WY+MzxiJey296agGqc1KCm0uaVD/Kay+FtR5tOiQT0MFqvKYyo+7
ACSq3vo93xuWD+ODCmzd+v3tQBA39CBRoui6KxObYe8Kje0VQP6RcWZCZ3s3w4qe
LWZZwF7lGQ8viH935O2wRQYcZRuns2aUtbsKhsbquIhDtWibo9zJko5BzculmKAn
mlXAe86tO4RIkdh5gnkwVKTiz4HiXuaRcBdKys/WZzzMvUenAgMBAAGjggE+MIIB
OjAJBgNVHRMEAjAAMBEGCWCGSAGG+EIBAQQEAwIGQDAzBglghkgBhvhCAQ0EJhYk
T3BlblNTTCBHZW5lcmF0ZWQgU2VydmVyIENlcnRpZmljYXRlMB0GA1UdDgQWBBQl
gUy4Ac3HkyyGX/LQUD5w8RqmiDCBowYDVR0jBIGbMIGYgBRHRilW4uvBX4Y2MF2X
i9gdiMzVCqFqpGgwZjELMAkGA1UEBhMCS0cxCzAJBgNVBAgMAk5BMRAwDgYDVQQH
DAdCSVNIS0VLMRUwEwYDVQQKDAxPcGVuVlBOLVRFU1QxITAfBgkqhkiG9w0BCQEW
Em1lQG15aG9zdC5teWRvbWFpboIUIKSUqsyX69/z/5qmMsU769Z1gXMwEwYDVR0l
BAwwCgYIKwYBBQUHAwEwCwYDVR0PBAQDAgWgMA0GCSqGSIb3DQEBCwUAA4ICAQBo
mfls5J/WditObAwAgNDkPXGQNeXZ8p5Cv539oeZWe+VLnV9t+IZws5tFt05BNJKL
9u1nqYZlitqy5l862n2tjHaidKI0QP893XOi3mGjWLCUTME0U/M18HYTx0IwhZSm
Fu+BMd6YWoGs3liDZ4RGUVA9DoA0kamKiqz28mHPXLQHx+r6vyLaendfO7GAxMg1
J4sdgtNgjlpQiX1wqN8psL8nh9fDRQsnIWoj0aCQlSb+8RMqjrOEsmHyymkR58gQ
XtwcGtDtQPoalt/1deYF4j6VbidN/F7usKsqQISzLwdzfYqGvUwQnhZiwSK3Ftop
FJoFlLEYNlHrtEeI2eAvP91sE/eoMWjwQwcV3RLEfaURw+p318prnK8hnA94rFDp
IeYxeOPfTCEYdK1jAFkZguYnJWzHH0FU/6lU7UY9MTXu0pal8h+hGjEMSvFerJKM
NQ9mftoCmPrLfEXoil09Q+XR4ac+bgRX7ZYy9JSh4Ehn/Xrk9ZENtlwH9q7JmDhT
ph1O5dlKw/9tnx4ujQJT41Tuz/7mr3e2QnN6end4XRGmA2l8gWrYmw341BAxdr2K
q0fCeM6ek7pJQPl2ppHOaTL9ZYxKb/qrie8xWEYzzKcx0ZVseMFaV3fNQwZZkV2/
HEtcYhL6iBGaVoWbdo7GRvYn/Pb2M2Nn2V+Tq2kMUg==
-----END CERTIFICATE-----
